
AT24C08Loader.elf:     file format elf32-littlearm

Sections:
Idx Name          Size      VMA       LMA       File off  Algn
  0 .isr_vector   000000c0  08000000  08000000  00001000  2**0
                  CONTENTS, ALLOC, LOAD, READONLY, DATA
  1 .text         00003394  080000c0  080000c0  000010c0  2**2
                  CONTENTS, ALLOC, LOAD, READONLY, CODE
  2 .rodata       00000030  08003454  08003454  00004454  2**0
                  CONTENTS, ALLOC, LOAD, READONLY, DATA
  3 .ARM.extab    00000000  08003484  08003484  00005060  2**0
                  CONTENTS, READONLY
  4 .ARM          00000000  08003484  08003484  00005060  2**0
                  CONTENTS, READONLY
  5 .preinit_array 00000000  08003484  08003484  00005060  2**0
                  CONTENTS, ALLOC, LOAD, DATA
  6 .init_array   00000004  08003484  08003484  00004484  2**2
                  CONTENTS, ALLOC, LOAD, READONLY, DATA
  7 .fini_array   00000004  08003488  08003488  00004488  2**2
                  CONTENTS, ALLOC, LOAD, READONLY, DATA
  8 .data         00000060  20000000  0800348c  00005000  2**2
                  CONTENTS, ALLOC, LOAD, DATA
  9 .bss          00000258  20000060  080034ec  00005060  2**2
                  ALLOC
 10 ._user_heap_stack 00000600  200002b8  080034ec  000052b8  2**0
                  ALLOC
 11 .ARM.attributes 00000028  00000000  00000000  00005060  2**0
                  CONTENTS, READONLY
 12 .comment      00000043  00000000  00000000  00005088  2**0
                  CONTENTS, READONLY
 13 .debug_frame  00000574  00000000  00000000  000050cc  2**2
                  CONTENTS, READONLY, DEBUGGING, OCTETS

Disassembly of section .text:

080000c0 <__do_global_dtors_aux>:
 80000c0:	b510      	push	{r4, lr}
 80000c2:	4c06      	ldr	r4, [pc, #24]	@ (80000dc <__do_global_dtors_aux+0x1c>)
 80000c4:	7823      	ldrb	r3, [r4, #0]
 80000c6:	2b00      	cmp	r3, #0
 80000c8:	d107      	bne.n	80000da <__do_global_dtors_aux+0x1a>
 80000ca:	4b05      	ldr	r3, [pc, #20]	@ (80000e0 <__do_global_dtors_aux+0x20>)
 80000cc:	2b00      	cmp	r3, #0
 80000ce:	d002      	beq.n	80000d6 <__do_global_dtors_aux+0x16>
 80000d0:	4804      	ldr	r0, [pc, #16]	@ (80000e4 <__do_global_dtors_aux+0x24>)
 80000d2:	e000      	b.n	80000d6 <__do_global_dtors_aux+0x16>
 80000d4:	bf00      	nop
 80000d6:	2301      	movs	r3, #1
 80000d8:	7023      	strb	r3, [r4, #0]
 80000da:	bd10      	pop	{r4, pc}
 80000dc:	20000060 	.word	0x20000060
 80000e0:	00000000 	.word	0x00000000
 80000e4:	0800343c 	.word	0x0800343c

080000e8 <frame_dummy>:
 80000e8:	4b04      	ldr	r3, [pc, #16]	@ (80000fc <frame_dummy+0x14>)
 80000ea:	b510      	push	{r4, lr}
 80000ec:	2b00      	cmp	r3, #0
 80000ee:	d003      	beq.n	80000f8 <frame_dummy+0x10>
 80000f0:	4903      	ldr	r1, [pc, #12]	@ (8000100 <frame_dummy+0x18>)
 80000f2:	4804      	ldr	r0, [pc, #16]	@ (8000104 <frame_dummy+0x1c>)
 80000f4:	e000      	b.n	80000f8 <frame_dummy+0x10>
 80000f6:	bf00      	nop
 80000f8:	bd10      	pop	{r4, pc}
 80000fa:	46c0      	nop			@ (mov r8, r8)
 80000fc:	00000000 	.word	0x00000000
 8000100:	20000064 	.word	0x20000064
 8000104:	0800343c 	.word	0x0800343c

08000108 <__udivsi3>:
 8000108:	2200      	movs	r2, #0
 800010a:	0843      	lsrs	r3, r0, #1
 800010c:	428b      	cmp	r3, r1
 800010e:	d374      	bcc.n	80001fa <__udivsi3+0xf2>
 8000110:	0903      	lsrs	r3, r0, #4
 8000112:	428b      	cmp	r3, r1
 8000114:	d35f      	bcc.n	80001d6 <__udivsi3+0xce>
 8000116:	0a03      	lsrs	r3, r0, #8
 8000118:	428b      	cmp	r3, r1
 800011a:	d344      	bcc.n	80001a6 <__udivsi3+0x9e>
 800011c:	0b03      	lsrs	r3, r0, #12
 800011e:	428b      	cmp	r3, r1
 8000120:	d328      	bcc.n	8000174 <__udivsi3+0x6c>
 8000122:	0c03      	lsrs	r3, r0, #16
 8000124:	428b      	cmp	r3, r1
 8000126:	d30d      	bcc.n	8000144 <__udivsi3+0x3c>
 8000128:	22ff      	movs	r2, #255	@ 0xff
 800012a:	0209      	lsls	r1, r1, #8
 800012c:	ba12      	rev	r2, r2
 800012e:	0c03      	lsrs	r3, r0, #16
 8000130:	428b      	cmp	r3, r1
 8000132:	d302      	bcc.n	800013a <__udivsi3+0x32>
 8000134:	1212      	asrs	r2, r2, #8
 8000136:	0209      	lsls	r1, r1, #8
 8000138:	d065      	beq.n	8000206 <__udivsi3+0xfe>
 800013a:	0b03      	lsrs	r3, r0, #12
 800013c:	428b      	cmp	r3, r1
 800013e:	d319      	bcc.n	8000174 <__udivsi3+0x6c>
 8000140:	e000      	b.n	8000144 <__udivsi3+0x3c>
 8000142:	0a09      	lsrs	r1, r1, #8
 8000144:	0bc3      	lsrs	r3, r0, #15
 8000146:	428b      	cmp	r3, r1
 8000148:	d301      	bcc.n	800014e <__udivsi3+0x46>
 800014a:	03cb      	lsls	r3, r1, #15
 800014c:	1ac0      	subs	r0, r0, r3
 800014e:	4152      	adcs	r2, r2
 8000150:	0b83      	lsrs	r3, r0, #14
 8000152:	428b      	cmp	r3, r1
 8000154:	d301      	bcc.n	800015a <__udivsi3+0x52>
 8000156:	038b      	lsls	r3, r1, #14
 8000158:	1ac0      	subs	r0, r0, r3
 800015a:	4152      	adcs	r2, r2
 800015c:	0b43      	lsrs	r3, r0, #13
 800015e:	428b      	cmp	r3, r1
 8000160:	d301      	bcc.n	8000166 <__udivsi3+0x5e>
 8000162:	034b      	lsls	r3, r1, #13
 8000164:	1ac0      	subs	r0, r0, r3
 8000166:	4152      	adcs	r2, r2
 8000168:	0b03      	lsrs	r3, r0, #12
 800016a:	428b      	cmp	r3, r1
 800016c:	d301      	bcc.n	8000172 <__udivsi3+0x6a>
 800016e:	030b      	lsls	r3, r1, #12
 8000170:	1ac0      	subs	r0, r0, r3
 8000172:	4152      	adcs	r2, r2
 8000174:	0ac3      	lsrs	r3, r0, #11
 8000176:	428b      	cmp	r3, r1
 8000178:	d301      	bcc.n	800017e <__udivsi3+0x76>
 800017a:	02cb      	lsls	r3, r1, #11
 800017c:	1ac0      	subs	r0, r0, r3
 800017e:	4152      	adcs	r2, r2
 8000180:	0a83      	lsrs	r3, r0, #10
 8000182:	428b      	cmp	r3, r1
 8000184:	d301      	bcc.n	800018a <__udivsi3+0x82>
 8000186:	028b      	lsls	r3, r1, #10
 8000188:	1ac0      	subs	r0, r0, r3
 800018a:	4152      	adcs	r2, r2
 800018c:	0a43      	lsrs	r3, r0, #9
 800018e:	428b      	cmp	r3, r1
 8000190:	d301      	bcc.n	8000196 <__udivsi3+0x8e>
 8000192:	024b      	lsls	r3, r1, #9
 8000194:	1ac0      	subs	r0, r0, r3
 8000196:	4152      	adcs	r2, r2
 8000198:	0a03      	lsrs	r3, r0, #8
 800019a:	428b      	cmp	r3, r1
 800019c:	d301      	bcc.n	80001a2 <__udivsi3+0x9a>
 800019e:	020b      	lsls	r3, r1, #8
 80001a0:	1ac0      	subs	r0, r0, r3
 80001a2:	4152      	adcs	r2, r2
 80001a4:	d2cd      	bcs.n	8000142 <__udivsi3+0x3a>
 80001a6:	09c3      	lsrs	r3, r0, #7
 80001a8:	428b      	cmp	r3, r1
 80001aa:	d301      	bcc.n	80001b0 <__udivsi3+0xa8>
 80001ac:	01cb      	lsls	r3, r1, #7
 80001ae:	1ac0      	subs	r0, r0, r3
 80001b0:	4152      	adcs	r2, r2
 80001b2:	0983      	lsrs	r3, r0, #6
 80001b4:	428b      	cmp	r3, r1
 80001b6:	d301      	bcc.n	80001bc <__udivsi3+0xb4>
 80001b8:	018b      	lsls	r3, r1, #6
 80001ba:	1ac0      	subs	r0, r0, r3
 80001bc:	4152      	adcs	r2, r2
 80001be:	0943      	lsrs	r3, r0, #5
 80001c0:	428b      	cmp	r3, r1
 80001c2:	d301      	bcc.n	80001c8 <__udivsi3+0xc0>
 80001c4:	014b      	lsls	r3, r1, #5
 80001c6:	1ac0      	subs	r0, r0, r3
 80001c8:	4152      	adcs	r2, r2
 80001ca:	0903      	lsrs	r3, r0, #4
 80001cc:	428b      	cmp	r3, r1
 80001ce:	d301      	bcc.n	80001d4 <__udivsi3+0xcc>
 80001d0:	010b      	lsls	r3, r1, #4
 80001d2:	1ac0      	subs	r0, r0, r3
 80001d4:	4152      	adcs	r2, r2
 80001d6:	08c3      	lsrs	r3, r0, #3
 80001d8:	428b      	cmp	r3, r1
 80001da:	d301      	bcc.n	80001e0 <__udivsi3+0xd8>
 80001dc:	00cb      	lsls	r3, r1, #3
 80001de:	1ac0      	subs	r0, r0, r3
 80001e0:	4152      	adcs	r2, r2
 80001e2:	0883      	lsrs	r3, r0, #2
 80001e4:	428b      	cmp	r3, r1
 80001e6:	d301      	bcc.n	80001ec <__udivsi3+0xe4>
 80001e8:	008b      	lsls	r3, r1, #2
 80001ea:	1ac0      	subs	r0, r0, r3
 80001ec:	4152      	adcs	r2, r2
 80001ee:	0843      	lsrs	r3, r0, #1
 80001f0:	428b      	cmp	r3, r1
 80001f2:	d301      	bcc.n	80001f8 <__udivsi3+0xf0>
 80001f4:	004b      	lsls	r3, r1, #1
 80001f6:	1ac0      	subs	r0, r0, r3
 80001f8:	4152      	adcs	r2, r2
 80001fa:	1a41      	subs	r1, r0, r1
 80001fc:	d200      	bcs.n	8000200 <__udivsi3+0xf8>
 80001fe:	4601      	mov	r1, r0
 8000200:	4152      	adcs	r2, r2
 8000202:	4610      	mov	r0, r2
 8000204:	4770      	bx	lr
 8000206:	e7ff      	b.n	8000208 <__udivsi3+0x100>
 8000208:	b501      	push	{r0, lr}
 800020a:	2000      	movs	r0, #0
 800020c:	f000 f806 	bl	800021c <__aeabi_idiv0>
 8000210:	bd02      	pop	{r1, pc}
 8000212:	46c0      	nop			@ (mov r8, r8)

08000214 <__aeabi_uidivmod>:
 8000214:	2900      	cmp	r1, #0
 8000216:	d0f7      	beq.n	8000208 <__udivsi3+0x100>
 8000218:	e776      	b.n	8000108 <__udivsi3>
 800021a:	4770      	bx	lr

0800021c <__aeabi_idiv0>:
 800021c:	4770      	bx	lr
 800021e:	46c0      	nop			@ (mov r8, r8)

08000220 <__aeabi_d2uiz>:
 8000220:	b570      	push	{r4, r5, r6, lr}
 8000222:	2200      	movs	r2, #0
 8000224:	4b0c      	ldr	r3, [pc, #48]	@ (8000258 <__aeabi_d2uiz+0x38>)
 8000226:	0004      	movs	r4, r0
 8000228:	000d      	movs	r5, r1
 800022a:	f000 ff9b 	bl	8001164 <__aeabi_dcmpge>
 800022e:	2800      	cmp	r0, #0
 8000230:	d104      	bne.n	800023c <__aeabi_d2uiz+0x1c>
 8000232:	0020      	movs	r0, r4
 8000234:	0029      	movs	r1, r5
 8000236:	f000 ff01 	bl	800103c <__aeabi_d2iz>
 800023a:	bd70      	pop	{r4, r5, r6, pc}
 800023c:	4b06      	ldr	r3, [pc, #24]	@ (8000258 <__aeabi_d2uiz+0x38>)
 800023e:	2200      	movs	r2, #0
 8000240:	0020      	movs	r0, r4
 8000242:	0029      	movs	r1, r5
 8000244:	f000 faf0 	bl	8000828 <__aeabi_dsub>
 8000248:	f000 fef8 	bl	800103c <__aeabi_d2iz>
 800024c:	2380      	movs	r3, #128	@ 0x80
 800024e:	061b      	lsls	r3, r3, #24
 8000250:	469c      	mov	ip, r3
 8000252:	4460      	add	r0, ip
 8000254:	e7f1      	b.n	800023a <__aeabi_d2uiz+0x1a>
 8000256:	46c0      	nop			@ (mov r8, r8)
 8000258:	41e00000 	.word	0x41e00000

0800025c <__aeabi_dmul>:
 800025c:	b5f0      	push	{r4, r5, r6, r7, lr}
 800025e:	4657      	mov	r7, sl
 8000260:	464e      	mov	r6, r9
 8000262:	46de      	mov	lr, fp
 8000264:	4645      	mov	r5, r8
 8000266:	b5e0      	push	{r5, r6, r7, lr}
 8000268:	001f      	movs	r7, r3
 800026a:	030b      	lsls	r3, r1, #12
 800026c:	0b1b      	lsrs	r3, r3, #12
 800026e:	0016      	movs	r6, r2
 8000270:	469a      	mov	sl, r3
 8000272:	0fca      	lsrs	r2, r1, #31
 8000274:	004b      	lsls	r3, r1, #1
 8000276:	0004      	movs	r4, r0
 8000278:	4691      	mov	r9, r2
 800027a:	b085      	sub	sp, #20
 800027c:	0d5b      	lsrs	r3, r3, #21
 800027e:	d100      	bne.n	8000282 <__aeabi_dmul+0x26>
 8000280:	e1cf      	b.n	8000622 <__aeabi_dmul+0x3c6>
 8000282:	4acd      	ldr	r2, [pc, #820]	@ (80005b8 <__aeabi_dmul+0x35c>)
 8000284:	4293      	cmp	r3, r2
 8000286:	d055      	beq.n	8000334 <__aeabi_dmul+0xd8>
 8000288:	4651      	mov	r1, sl
 800028a:	0f42      	lsrs	r2, r0, #29
 800028c:	00c9      	lsls	r1, r1, #3
 800028e:	430a      	orrs	r2, r1
 8000290:	2180      	movs	r1, #128	@ 0x80
 8000292:	0409      	lsls	r1, r1, #16
 8000294:	4311      	orrs	r1, r2
 8000296:	00c2      	lsls	r2, r0, #3
 8000298:	4690      	mov	r8, r2
 800029a:	4ac8      	ldr	r2, [pc, #800]	@ (80005bc <__aeabi_dmul+0x360>)
 800029c:	468a      	mov	sl, r1
 800029e:	4693      	mov	fp, r2
 80002a0:	449b      	add	fp, r3
 80002a2:	2300      	movs	r3, #0
 80002a4:	2500      	movs	r5, #0
 80002a6:	9302      	str	r3, [sp, #8]
 80002a8:	033c      	lsls	r4, r7, #12
 80002aa:	007b      	lsls	r3, r7, #1
 80002ac:	0ffa      	lsrs	r2, r7, #31
 80002ae:	9601      	str	r6, [sp, #4]
 80002b0:	0b24      	lsrs	r4, r4, #12
 80002b2:	0d5b      	lsrs	r3, r3, #21
 80002b4:	9200      	str	r2, [sp, #0]
 80002b6:	d100      	bne.n	80002ba <__aeabi_dmul+0x5e>
 80002b8:	e188      	b.n	80005cc <__aeabi_dmul+0x370>
 80002ba:	4abf      	ldr	r2, [pc, #764]	@ (80005b8 <__aeabi_dmul+0x35c>)
 80002bc:	4293      	cmp	r3, r2
 80002be:	d100      	bne.n	80002c2 <__aeabi_dmul+0x66>
 80002c0:	e092      	b.n	80003e8 <__aeabi_dmul+0x18c>
 80002c2:	4abe      	ldr	r2, [pc, #760]	@ (80005bc <__aeabi_dmul+0x360>)
 80002c4:	4694      	mov	ip, r2
 80002c6:	4463      	add	r3, ip
 80002c8:	449b      	add	fp, r3
 80002ca:	2d0a      	cmp	r5, #10
 80002cc:	dc42      	bgt.n	8000354 <__aeabi_dmul+0xf8>
 80002ce:	00e4      	lsls	r4, r4, #3
 80002d0:	0f73      	lsrs	r3, r6, #29
 80002d2:	4323      	orrs	r3, r4
 80002d4:	2480      	movs	r4, #128	@ 0x80
 80002d6:	4649      	mov	r1, r9
 80002d8:	0424      	lsls	r4, r4, #16
 80002da:	431c      	orrs	r4, r3
 80002dc:	00f3      	lsls	r3, r6, #3
 80002de:	9301      	str	r3, [sp, #4]
 80002e0:	9b00      	ldr	r3, [sp, #0]
 80002e2:	2000      	movs	r0, #0
 80002e4:	4059      	eors	r1, r3
 80002e6:	b2cb      	uxtb	r3, r1
 80002e8:	9303      	str	r3, [sp, #12]
 80002ea:	2d02      	cmp	r5, #2
 80002ec:	dc00      	bgt.n	80002f0 <__aeabi_dmul+0x94>
 80002ee:	e094      	b.n	800041a <__aeabi_dmul+0x1be>
 80002f0:	2301      	movs	r3, #1
 80002f2:	40ab      	lsls	r3, r5
 80002f4:	001d      	movs	r5, r3
 80002f6:	23a6      	movs	r3, #166	@ 0xa6
 80002f8:	002a      	movs	r2, r5
 80002fa:	00db      	lsls	r3, r3, #3
 80002fc:	401a      	ands	r2, r3
 80002fe:	421d      	tst	r5, r3
 8000300:	d000      	beq.n	8000304 <__aeabi_dmul+0xa8>
 8000302:	e229      	b.n	8000758 <__aeabi_dmul+0x4fc>
 8000304:	2390      	movs	r3, #144	@ 0x90
 8000306:	009b      	lsls	r3, r3, #2
 8000308:	421d      	tst	r5, r3
 800030a:	d100      	bne.n	800030e <__aeabi_dmul+0xb2>
 800030c:	e24d      	b.n	80007aa <__aeabi_dmul+0x54e>
 800030e:	2300      	movs	r3, #0
 8000310:	2480      	movs	r4, #128	@ 0x80
 8000312:	4699      	mov	r9, r3
 8000314:	0324      	lsls	r4, r4, #12
 8000316:	4ba8      	ldr	r3, [pc, #672]	@ (80005b8 <__aeabi_dmul+0x35c>)
 8000318:	0010      	movs	r0, r2
 800031a:	464a      	mov	r2, r9
 800031c:	051b      	lsls	r3, r3, #20
 800031e:	4323      	orrs	r3, r4
 8000320:	07d2      	lsls	r2, r2, #31
 8000322:	4313      	orrs	r3, r2
 8000324:	0019      	movs	r1, r3
 8000326:	b005      	add	sp, #20
 8000328:	bcf0      	pop	{r4, r5, r6, r7}
 800032a:	46bb      	mov	fp, r7
 800032c:	46b2      	mov	sl, r6
 800032e:	46a9      	mov	r9, r5
 8000330:	46a0      	mov	r8, r4
 8000332:	bdf0      	pop	{r4, r5, r6, r7, pc}
 8000334:	4652      	mov	r2, sl
 8000336:	4302      	orrs	r2, r0
 8000338:	4690      	mov	r8, r2
 800033a:	d000      	beq.n	800033e <__aeabi_dmul+0xe2>
 800033c:	e1ac      	b.n	8000698 <__aeabi_dmul+0x43c>
 800033e:	469b      	mov	fp, r3
 8000340:	2302      	movs	r3, #2
 8000342:	4692      	mov	sl, r2
 8000344:	2508      	movs	r5, #8
 8000346:	9302      	str	r3, [sp, #8]
 8000348:	e7ae      	b.n	80002a8 <__aeabi_dmul+0x4c>
 800034a:	9b00      	ldr	r3, [sp, #0]
 800034c:	46a2      	mov	sl, r4
 800034e:	4699      	mov	r9, r3
 8000350:	9b01      	ldr	r3, [sp, #4]
 8000352:	4698      	mov	r8, r3
 8000354:	9b02      	ldr	r3, [sp, #8]
 8000356:	2b02      	cmp	r3, #2
 8000358:	d100      	bne.n	800035c <__aeabi_dmul+0x100>
 800035a:	e1ca      	b.n	80006f2 <__aeabi_dmul+0x496>
 800035c:	2b03      	cmp	r3, #3
 800035e:	d100      	bne.n	8000362 <__aeabi_dmul+0x106>
 8000360:	e192      	b.n	8000688 <__aeabi_dmul+0x42c>
 8000362:	2b01      	cmp	r3, #1
 8000364:	d110      	bne.n	8000388 <__aeabi_dmul+0x12c>
 8000366:	2300      	movs	r3, #0
 8000368:	2400      	movs	r4, #0
 800036a:	2200      	movs	r2, #0
 800036c:	e7d4      	b.n	8000318 <__aeabi_dmul+0xbc>
 800036e:	2201      	movs	r2, #1
 8000370:	087b      	lsrs	r3, r7, #1
 8000372:	403a      	ands	r2, r7
 8000374:	4313      	orrs	r3, r2
 8000376:	4652      	mov	r2, sl
 8000378:	07d2      	lsls	r2, r2, #31
 800037a:	4313      	orrs	r3, r2
 800037c:	4698      	mov	r8, r3
 800037e:	4653      	mov	r3, sl
 8000380:	085b      	lsrs	r3, r3, #1
 8000382:	469a      	mov	sl, r3
 8000384:	9b03      	ldr	r3, [sp, #12]
 8000386:	4699      	mov	r9, r3
 8000388:	465b      	mov	r3, fp
 800038a:	1c58      	adds	r0, r3, #1
 800038c:	2380      	movs	r3, #128	@ 0x80
 800038e:	00db      	lsls	r3, r3, #3
 8000390:	445b      	add	r3, fp
 8000392:	2b00      	cmp	r3, #0
 8000394:	dc00      	bgt.n	8000398 <__aeabi_dmul+0x13c>
 8000396:	e1b1      	b.n	80006fc <__aeabi_dmul+0x4a0>
 8000398:	4642      	mov	r2, r8
 800039a:	0752      	lsls	r2, r2, #29
 800039c:	d00b      	beq.n	80003b6 <__aeabi_dmul+0x15a>
 800039e:	220f      	movs	r2, #15
 80003a0:	4641      	mov	r1, r8
 80003a2:	400a      	ands	r2, r1
 80003a4:	2a04      	cmp	r2, #4
 80003a6:	d006      	beq.n	80003b6 <__aeabi_dmul+0x15a>
 80003a8:	4642      	mov	r2, r8
 80003aa:	1d11      	adds	r1, r2, #4
 80003ac:	4541      	cmp	r1, r8
 80003ae:	4192      	sbcs	r2, r2
 80003b0:	4688      	mov	r8, r1
 80003b2:	4252      	negs	r2, r2
 80003b4:	4492      	add	sl, r2
 80003b6:	4652      	mov	r2, sl
 80003b8:	01d2      	lsls	r2, r2, #7
 80003ba:	d506      	bpl.n	80003ca <__aeabi_dmul+0x16e>
 80003bc:	4652      	mov	r2, sl
 80003be:	4b80      	ldr	r3, [pc, #512]	@ (80005c0 <__aeabi_dmul+0x364>)
 80003c0:	401a      	ands	r2, r3
 80003c2:	2380      	movs	r3, #128	@ 0x80
 80003c4:	4692      	mov	sl, r2
 80003c6:	00db      	lsls	r3, r3, #3
 80003c8:	18c3      	adds	r3, r0, r3
 80003ca:	4a7e      	ldr	r2, [pc, #504]	@ (80005c4 <__aeabi_dmul+0x368>)
 80003cc:	4293      	cmp	r3, r2
 80003ce:	dd00      	ble.n	80003d2 <__aeabi_dmul+0x176>
 80003d0:	e18f      	b.n	80006f2 <__aeabi_dmul+0x496>
 80003d2:	4642      	mov	r2, r8
 80003d4:	08d1      	lsrs	r1, r2, #3
 80003d6:	4652      	mov	r2, sl
 80003d8:	0752      	lsls	r2, r2, #29
 80003da:	430a      	orrs	r2, r1
 80003dc:	4651      	mov	r1, sl
 80003de:	055b      	lsls	r3, r3, #21
 80003e0:	024c      	lsls	r4, r1, #9
 80003e2:	0b24      	lsrs	r4, r4, #12
 80003e4:	0d5b      	lsrs	r3, r3, #21
 80003e6:	e797      	b.n	8000318 <__aeabi_dmul+0xbc>
 80003e8:	4b73      	ldr	r3, [pc, #460]	@ (80005b8 <__aeabi_dmul+0x35c>)
 80003ea:	4326      	orrs	r6, r4
 80003ec:	469c      	mov	ip, r3
 80003ee:	44e3      	add	fp, ip
 80003f0:	2e00      	cmp	r6, #0
 80003f2:	d100      	bne.n	80003f6 <__aeabi_dmul+0x19a>
 80003f4:	e16f      	b.n	80006d6 <__aeabi_dmul+0x47a>
 80003f6:	2303      	movs	r3, #3
 80003f8:	4649      	mov	r1, r9
 80003fa:	431d      	orrs	r5, r3
 80003fc:	9b00      	ldr	r3, [sp, #0]
 80003fe:	4059      	eors	r1, r3
 8000400:	b2cb      	uxtb	r3, r1
 8000402:	9303      	str	r3, [sp, #12]
 8000404:	2d0a      	cmp	r5, #10
 8000406:	dd00      	ble.n	800040a <__aeabi_dmul+0x1ae>
 8000408:	e133      	b.n	8000672 <__aeabi_dmul+0x416>
 800040a:	2301      	movs	r3, #1
 800040c:	40ab      	lsls	r3, r5
 800040e:	001d      	movs	r5, r3
 8000410:	2303      	movs	r3, #3
 8000412:	9302      	str	r3, [sp, #8]
 8000414:	2288      	movs	r2, #136	@ 0x88
 8000416:	422a      	tst	r2, r5
 8000418:	d197      	bne.n	800034a <__aeabi_dmul+0xee>
 800041a:	4642      	mov	r2, r8
 800041c:	4643      	mov	r3, r8
 800041e:	0412      	lsls	r2, r2, #16
 8000420:	0c12      	lsrs	r2, r2, #16
 8000422:	0016      	movs	r6, r2
 8000424:	9801      	ldr	r0, [sp, #4]
 8000426:	0c1d      	lsrs	r5, r3, #16
 8000428:	0c03      	lsrs	r3, r0, #16
 800042a:	0400      	lsls	r0, r0, #16
 800042c:	0c00      	lsrs	r0, r0, #16
 800042e:	4346      	muls	r6, r0
 8000430:	46b4      	mov	ip, r6
 8000432:	001e      	movs	r6, r3
 8000434:	436e      	muls	r6, r5
 8000436:	9600      	str	r6, [sp, #0]
 8000438:	0016      	movs	r6, r2
 800043a:	0007      	movs	r7, r0
 800043c:	435e      	muls	r6, r3
 800043e:	4661      	mov	r1, ip
 8000440:	46b0      	mov	r8, r6
 8000442:	436f      	muls	r7, r5
 8000444:	0c0e      	lsrs	r6, r1, #16
 8000446:	44b8      	add	r8, r7
 8000448:	4446      	add	r6, r8
 800044a:	42b7      	cmp	r7, r6
 800044c:	d905      	bls.n	800045a <__aeabi_dmul+0x1fe>
 800044e:	2180      	movs	r1, #128	@ 0x80
 8000450:	0249      	lsls	r1, r1, #9
 8000452:	4688      	mov	r8, r1
 8000454:	9f00      	ldr	r7, [sp, #0]
 8000456:	4447      	add	r7, r8
 8000458:	9700      	str	r7, [sp, #0]
 800045a:	4661      	mov	r1, ip
 800045c:	0409      	lsls	r1, r1, #16
 800045e:	0c09      	lsrs	r1, r1, #16
 8000460:	0c37      	lsrs	r7, r6, #16
 8000462:	0436      	lsls	r6, r6, #16
 8000464:	468c      	mov	ip, r1
 8000466:	0031      	movs	r1, r6
 8000468:	4461      	add	r1, ip
 800046a:	9101      	str	r1, [sp, #4]
 800046c:	0011      	movs	r1, r2
 800046e:	0c26      	lsrs	r6, r4, #16
 8000470:	0424      	lsls	r4, r4, #16
 8000472:	0c24      	lsrs	r4, r4, #16
 8000474:	4361      	muls	r1, r4
 8000476:	468c      	mov	ip, r1
 8000478:	0021      	movs	r1, r4
 800047a:	4369      	muls	r1, r5
 800047c:	4689      	mov	r9, r1
 800047e:	4661      	mov	r1, ip
 8000480:	0c09      	lsrs	r1, r1, #16
 8000482:	4688      	mov	r8, r1
 8000484:	4372      	muls	r2, r6
 8000486:	444a      	add	r2, r9
 8000488:	4442      	add	r2, r8
 800048a:	4375      	muls	r5, r6
 800048c:	4591      	cmp	r9, r2
 800048e:	d903      	bls.n	8000498 <__aeabi_dmul+0x23c>
 8000490:	2180      	movs	r1, #128	@ 0x80
 8000492:	0249      	lsls	r1, r1, #9
 8000494:	4688      	mov	r8, r1
 8000496:	4445      	add	r5, r8
 8000498:	0c11      	lsrs	r1, r2, #16
 800049a:	4688      	mov	r8, r1
 800049c:	4661      	mov	r1, ip
 800049e:	0409      	lsls	r1, r1, #16
 80004a0:	0c09      	lsrs	r1, r1, #16
 80004a2:	468c      	mov	ip, r1
 80004a4:	0412      	lsls	r2, r2, #16
 80004a6:	4462      	add	r2, ip
 80004a8:	18b9      	adds	r1, r7, r2
 80004aa:	9102      	str	r1, [sp, #8]
 80004ac:	4651      	mov	r1, sl
 80004ae:	0c09      	lsrs	r1, r1, #16
 80004b0:	468c      	mov	ip, r1
 80004b2:	4651      	mov	r1, sl
 80004b4:	040f      	lsls	r7, r1, #16
 80004b6:	0c3f      	lsrs	r7, r7, #16
 80004b8:	0039      	movs	r1, r7
 80004ba:	4341      	muls	r1, r0
 80004bc:	4445      	add	r5, r8
 80004be:	4688      	mov	r8, r1
 80004c0:	4661      	mov	r1, ip
 80004c2:	4341      	muls	r1, r0
 80004c4:	468a      	mov	sl, r1
 80004c6:	4641      	mov	r1, r8
 80004c8:	4660      	mov	r0, ip
 80004ca:	0c09      	lsrs	r1, r1, #16
 80004cc:	4689      	mov	r9, r1
 80004ce:	4358      	muls	r0, r3
 80004d0:	437b      	muls	r3, r7
 80004d2:	4453      	add	r3, sl
 80004d4:	444b      	add	r3, r9
 80004d6:	459a      	cmp	sl, r3
 80004d8:	d903      	bls.n	80004e2 <__aeabi_dmul+0x286>
 80004da:	2180      	movs	r1, #128	@ 0x80
 80004dc:	0249      	lsls	r1, r1, #9
 80004de:	4689      	mov	r9, r1
 80004e0:	4448      	add	r0, r9
 80004e2:	0c19      	lsrs	r1, r3, #16
 80004e4:	4689      	mov	r9, r1
 80004e6:	4641      	mov	r1, r8
 80004e8:	0409      	lsls	r1, r1, #16
 80004ea:	0c09      	lsrs	r1, r1, #16
 80004ec:	4688      	mov	r8, r1
 80004ee:	0039      	movs	r1, r7
 80004f0:	4361      	muls	r1, r4
 80004f2:	041b      	lsls	r3, r3, #16
 80004f4:	4443      	add	r3, r8
 80004f6:	4688      	mov	r8, r1
 80004f8:	4661      	mov	r1, ip
 80004fa:	434c      	muls	r4, r1
 80004fc:	4371      	muls	r1, r6
 80004fe:	468c      	mov	ip, r1
 8000500:	4641      	mov	r1, r8
 8000502:	4377      	muls	r7, r6
 8000504:	0c0e      	lsrs	r6, r1, #16
 8000506:	193f      	adds	r7, r7, r4
 8000508:	19f6      	adds	r6, r6, r7
 800050a:	4448      	add	r0, r9
 800050c:	42b4      	cmp	r4, r6
 800050e:	d903      	bls.n	8000518 <__aeabi_dmul+0x2bc>
 8000510:	2180      	movs	r1, #128	@ 0x80
 8000512:	0249      	lsls	r1, r1, #9
 8000514:	4689      	mov	r9, r1
 8000516:	44cc      	add	ip, r9
 8000518:	9902      	ldr	r1, [sp, #8]
 800051a:	9f00      	ldr	r7, [sp, #0]
 800051c:	4689      	mov	r9, r1
 800051e:	0431      	lsls	r1, r6, #16
 8000520:	444f      	add	r7, r9
 8000522:	4689      	mov	r9, r1
 8000524:	4641      	mov	r1, r8
 8000526:	4297      	cmp	r7, r2
 8000528:	4192      	sbcs	r2, r2
 800052a:	040c      	lsls	r4, r1, #16
 800052c:	0c24      	lsrs	r4, r4, #16
 800052e:	444c      	add	r4, r9
 8000530:	18ff      	adds	r7, r7, r3
 8000532:	4252      	negs	r2, r2
 8000534:	1964      	adds	r4, r4, r5
 8000536:	18a1      	adds	r1, r4, r2
 8000538:	429f      	cmp	r7, r3
 800053a:	419b      	sbcs	r3, r3
 800053c:	4688      	mov	r8, r1
 800053e:	4682      	mov	sl, r0
 8000540:	425b      	negs	r3, r3
 8000542:	4699      	mov	r9, r3
 8000544:	4590      	cmp	r8, r2
 8000546:	4192      	sbcs	r2, r2
 8000548:	42ac      	cmp	r4, r5
 800054a:	41a4      	sbcs	r4, r4
 800054c:	44c2      	add	sl, r8
 800054e:	44d1      	add	r9, sl
 8000550:	4252      	negs	r2, r2
 8000552:	4264      	negs	r4, r4
 8000554:	4314      	orrs	r4, r2
 8000556:	4599      	cmp	r9, r3
 8000558:	419b      	sbcs	r3, r3
 800055a:	4582      	cmp	sl, r0
 800055c:	4192      	sbcs	r2, r2
 800055e:	425b      	negs	r3, r3
 8000560:	4252      	negs	r2, r2
 8000562:	4313      	orrs	r3, r2
 8000564:	464a      	mov	r2, r9
 8000566:	0c36      	lsrs	r6, r6, #16
 8000568:	19a4      	adds	r4, r4, r6
 800056a:	18e3      	adds	r3, r4, r3
 800056c:	4463      	add	r3, ip
 800056e:	025b      	lsls	r3, r3, #9
 8000570:	0dd2      	lsrs	r2, r2, #23
 8000572:	431a      	orrs	r2, r3
 8000574:	9901      	ldr	r1, [sp, #4]
 8000576:	4692      	mov	sl, r2
 8000578:	027a      	lsls	r2, r7, #9
 800057a:	430a      	orrs	r2, r1
 800057c:	1e50      	subs	r0, r2, #1
 800057e:	4182      	sbcs	r2, r0
 8000580:	0dff      	lsrs	r7, r7, #23
 8000582:	4317      	orrs	r7, r2
 8000584:	464a      	mov	r2, r9
 8000586:	0252      	lsls	r2, r2, #9
 8000588:	4317      	orrs	r7, r2
 800058a:	46b8      	mov	r8, r7
 800058c:	01db      	lsls	r3, r3, #7
 800058e:	d500      	bpl.n	8000592 <__aeabi_dmul+0x336>
 8000590:	e6ed      	b.n	800036e <__aeabi_dmul+0x112>
 8000592:	4b0d      	ldr	r3, [pc, #52]	@ (80005c8 <__aeabi_dmul+0x36c>)
 8000594:	9a03      	ldr	r2, [sp, #12]
 8000596:	445b      	add	r3, fp
 8000598:	4691      	mov	r9, r2
 800059a:	2b00      	cmp	r3, #0
 800059c:	dc00      	bgt.n	80005a0 <__aeabi_dmul+0x344>
 800059e:	e0ac      	b.n	80006fa <__aeabi_dmul+0x49e>
 80005a0:	003a      	movs	r2, r7
 80005a2:	0752      	lsls	r2, r2, #29
 80005a4:	d100      	bne.n	80005a8 <__aeabi_dmul+0x34c>
 80005a6:	e710      	b.n	80003ca <__aeabi_dmul+0x16e>
 80005a8:	220f      	movs	r2, #15
 80005aa:	4658      	mov	r0, fp
 80005ac:	403a      	ands	r2, r7
 80005ae:	2a04      	cmp	r2, #4
 80005b0:	d000      	beq.n	80005b4 <__aeabi_dmul+0x358>
 80005b2:	e6f9      	b.n	80003a8 <__aeabi_dmul+0x14c>
 80005b4:	e709      	b.n	80003ca <__aeabi_dmul+0x16e>
 80005b6:	46c0      	nop			@ (mov r8, r8)
 80005b8:	000007ff 	.word	0x000007ff
 80005bc:	fffffc01 	.word	0xfffffc01
 80005c0:	feffffff 	.word	0xfeffffff
 80005c4:	000007fe 	.word	0x000007fe
 80005c8:	000003ff 	.word	0x000003ff
 80005cc:	0022      	movs	r2, r4
 80005ce:	4332      	orrs	r2, r6
 80005d0:	d06f      	beq.n	80006b2 <__aeabi_dmul+0x456>
 80005d2:	2c00      	cmp	r4, #0
 80005d4:	d100      	bne.n	80005d8 <__aeabi_dmul+0x37c>
 80005d6:	e0c2      	b.n	800075e <__aeabi_dmul+0x502>
 80005d8:	0020      	movs	r0, r4
 80005da:	f000 fdcd 	bl	8001178 <__clzsi2>
 80005de:	0002      	movs	r2, r0
 80005e0:	0003      	movs	r3, r0
 80005e2:	3a0b      	subs	r2, #11
 80005e4:	201d      	movs	r0, #29
 80005e6:	1a82      	subs	r2, r0, r2
 80005e8:	0030      	movs	r0, r6
 80005ea:	0019      	movs	r1, r3
 80005ec:	40d0      	lsrs	r0, r2
 80005ee:	3908      	subs	r1, #8
 80005f0:	408c      	lsls	r4, r1
 80005f2:	0002      	movs	r2, r0
 80005f4:	4322      	orrs	r2, r4
 80005f6:	0034      	movs	r4, r6
 80005f8:	408c      	lsls	r4, r1
 80005fa:	4659      	mov	r1, fp
 80005fc:	1acb      	subs	r3, r1, r3
 80005fe:	4986      	ldr	r1, [pc, #536]	@ (8000818 <__aeabi_dmul+0x5bc>)
 8000600:	468b      	mov	fp, r1
 8000602:	449b      	add	fp, r3
 8000604:	2d0a      	cmp	r5, #10
 8000606:	dd00      	ble.n	800060a <__aeabi_dmul+0x3ae>
 8000608:	e6a4      	b.n	8000354 <__aeabi_dmul+0xf8>
 800060a:	4649      	mov	r1, r9
 800060c:	9b00      	ldr	r3, [sp, #0]
 800060e:	9401      	str	r4, [sp, #4]
 8000610:	4059      	eors	r1, r3
 8000612:	b2cb      	uxtb	r3, r1
 8000614:	0014      	movs	r4, r2
 8000616:	2000      	movs	r0, #0
 8000618:	9303      	str	r3, [sp, #12]
 800061a:	2d02      	cmp	r5, #2
 800061c:	dd00      	ble.n	8000620 <__aeabi_dmul+0x3c4>
 800061e:	e667      	b.n	80002f0 <__aeabi_dmul+0x94>
 8000620:	e6fb      	b.n	800041a <__aeabi_dmul+0x1be>
 8000622:	4653      	mov	r3, sl
 8000624:	4303      	orrs	r3, r0
 8000626:	4698      	mov	r8, r3
 8000628:	d03c      	beq.n	80006a4 <__aeabi_dmul+0x448>
 800062a:	4653      	mov	r3, sl
 800062c:	2b00      	cmp	r3, #0
 800062e:	d100      	bne.n	8000632 <__aeabi_dmul+0x3d6>
 8000630:	e0a3      	b.n	800077a <__aeabi_dmul+0x51e>
 8000632:	4650      	mov	r0, sl
 8000634:	f000 fda0 	bl	8001178 <__clzsi2>
 8000638:	230b      	movs	r3, #11
 800063a:	425b      	negs	r3, r3
 800063c:	469c      	mov	ip, r3
 800063e:	0002      	movs	r2, r0
 8000640:	4484      	add	ip, r0
 8000642:	0011      	movs	r1, r2
 8000644:	4650      	mov	r0, sl
 8000646:	3908      	subs	r1, #8
 8000648:	4088      	lsls	r0, r1
 800064a:	231d      	movs	r3, #29
 800064c:	4680      	mov	r8, r0
 800064e:	4660      	mov	r0, ip
 8000650:	1a1b      	subs	r3, r3, r0
 8000652:	0020      	movs	r0, r4
 8000654:	40d8      	lsrs	r0, r3
 8000656:	0003      	movs	r3, r0
 8000658:	4640      	mov	r0, r8
 800065a:	4303      	orrs	r3, r0
 800065c:	469a      	mov	sl, r3
 800065e:	0023      	movs	r3, r4
 8000660:	408b      	lsls	r3, r1
 8000662:	4698      	mov	r8, r3
 8000664:	4b6c      	ldr	r3, [pc, #432]	@ (8000818 <__aeabi_dmul+0x5bc>)
 8000666:	2500      	movs	r5, #0
 8000668:	1a9b      	subs	r3, r3, r2
 800066a:	469b      	mov	fp, r3
 800066c:	2300      	movs	r3, #0
 800066e:	9302      	str	r3, [sp, #8]
 8000670:	e61a      	b.n	80002a8 <__aeabi_dmul+0x4c>
 8000672:	2d0f      	cmp	r5, #15
 8000674:	d000      	beq.n	8000678 <__aeabi_dmul+0x41c>
 8000676:	e0c9      	b.n	800080c <__aeabi_dmul+0x5b0>
 8000678:	2380      	movs	r3, #128	@ 0x80
 800067a:	4652      	mov	r2, sl
 800067c:	031b      	lsls	r3, r3, #12
 800067e:	421a      	tst	r2, r3
 8000680:	d002      	beq.n	8000688 <__aeabi_dmul+0x42c>
 8000682:	421c      	tst	r4, r3
 8000684:	d100      	bne.n	8000688 <__aeabi_dmul+0x42c>
 8000686:	e092      	b.n	80007ae <__aeabi_dmul+0x552>
 8000688:	2480      	movs	r4, #128	@ 0x80
 800068a:	4653      	mov	r3, sl
 800068c:	0324      	lsls	r4, r4, #12
 800068e:	431c      	orrs	r4, r3
 8000690:	0324      	lsls	r4, r4, #12
 8000692:	4642      	mov	r2, r8
 8000694:	0b24      	lsrs	r4, r4, #12
 8000696:	e63e      	b.n	8000316 <__aeabi_dmul+0xba>
 8000698:	469b      	mov	fp, r3
 800069a:	2303      	movs	r3, #3
 800069c:	4680      	mov	r8, r0
 800069e:	250c      	movs	r5, #12
 80006a0:	9302      	str	r3, [sp, #8]
 80006a2:	e601      	b.n	80002a8 <__aeabi_dmul+0x4c>
 80006a4:	2300      	movs	r3, #0
 80006a6:	469a      	mov	sl, r3
 80006a8:	469b      	mov	fp, r3
 80006aa:	3301      	adds	r3, #1
 80006ac:	2504      	movs	r5, #4
 80006ae:	9302      	str	r3, [sp, #8]
 80006b0:	e5fa      	b.n	80002a8 <__aeabi_dmul+0x4c>
 80006b2:	2101      	movs	r1, #1
 80006b4:	430d      	orrs	r5, r1
 80006b6:	2d0a      	cmp	r5, #10
 80006b8:	dd00      	ble.n	80006bc <__aeabi_dmul+0x460>
 80006ba:	e64b      	b.n	8000354 <__aeabi_dmul+0xf8>
 80006bc:	4649      	mov	r1, r9
 80006be:	9800      	ldr	r0, [sp, #0]
 80006c0:	4041      	eors	r1, r0
 80006c2:	b2c9      	uxtb	r1, r1
 80006c4:	9103      	str	r1, [sp, #12]
 80006c6:	2d02      	cmp	r5, #2
 80006c8:	dc00      	bgt.n	80006cc <__aeabi_dmul+0x470>
 80006ca:	e096      	b.n	80007fa <__aeabi_dmul+0x59e>
 80006cc:	2300      	movs	r3, #0
 80006ce:	2400      	movs	r4, #0
 80006d0:	2001      	movs	r0, #1
 80006d2:	9301      	str	r3, [sp, #4]
 80006d4:	e60c      	b.n	80002f0 <__aeabi_dmul+0x94>
 80006d6:	4649      	mov	r1, r9
 80006d8:	2302      	movs	r3, #2
 80006da:	9a00      	ldr	r2, [sp, #0]
 80006dc:	432b      	orrs	r3, r5
 80006de:	4051      	eors	r1, r2
 80006e0:	b2ca      	uxtb	r2, r1
 80006e2:	9203      	str	r2, [sp, #12]
 80006e4:	2b0a      	cmp	r3, #10
 80006e6:	dd00      	ble.n	80006ea <__aeabi_dmul+0x48e>
 80006e8:	e634      	b.n	8000354 <__aeabi_dmul+0xf8>
 80006ea:	2d00      	cmp	r5, #0
 80006ec:	d157      	bne.n	800079e <__aeabi_dmul+0x542>
 80006ee:	9b03      	ldr	r3, [sp, #12]
 80006f0:	4699      	mov	r9, r3
 80006f2:	2400      	movs	r4, #0
 80006f4:	2200      	movs	r2, #0
 80006f6:	4b49      	ldr	r3, [pc, #292]	@ (800081c <__aeabi_dmul+0x5c0>)
 80006f8:	e60e      	b.n	8000318 <__aeabi_dmul+0xbc>
 80006fa:	4658      	mov	r0, fp
 80006fc:	2101      	movs	r1, #1
 80006fe:	1ac9      	subs	r1, r1, r3
 8000700:	2938      	cmp	r1, #56	@ 0x38
 8000702:	dd00      	ble.n	8000706 <__aeabi_dmul+0x4aa>
 8000704:	e62f      	b.n	8000366 <__aeabi_dmul+0x10a>
 8000706:	291f      	cmp	r1, #31
 8000708:	dd56      	ble.n	80007b8 <__aeabi_dmul+0x55c>
 800070a:	221f      	movs	r2, #31
 800070c:	4654      	mov	r4, sl
 800070e:	4252      	negs	r2, r2
 8000710:	1ad3      	subs	r3, r2, r3
 8000712:	40dc      	lsrs	r4, r3
 8000714:	2920      	cmp	r1, #32
 8000716:	d007      	beq.n	8000728 <__aeabi_dmul+0x4cc>
 8000718:	4b41      	ldr	r3, [pc, #260]	@ (8000820 <__aeabi_dmul+0x5c4>)
 800071a:	4642      	mov	r2, r8
 800071c:	469c      	mov	ip, r3
 800071e:	4653      	mov	r3, sl
 8000720:	4460      	add	r0, ip
 8000722:	4083      	lsls	r3, r0
 8000724:	431a      	orrs	r2, r3
 8000726:	4690      	mov	r8, r2
 8000728:	4642      	mov	r2, r8
 800072a:	2107      	movs	r1, #7
 800072c:	1e53      	subs	r3, r2, #1
 800072e:	419a      	sbcs	r2, r3
 8000730:	000b      	movs	r3, r1
 8000732:	4322      	orrs	r2, r4
 8000734:	4013      	ands	r3, r2
 8000736:	2400      	movs	r4, #0
 8000738:	4211      	tst	r1, r2
 800073a:	d009      	beq.n	8000750 <__aeabi_dmul+0x4f4>
 800073c:	230f      	movs	r3, #15
 800073e:	4013      	ands	r3, r2
 8000740:	2b04      	cmp	r3, #4
 8000742:	d05d      	beq.n	8000800 <__aeabi_dmul+0x5a4>
 8000744:	1d11      	adds	r1, r2, #4
 8000746:	4291      	cmp	r1, r2
 8000748:	419b      	sbcs	r3, r3
 800074a:	000a      	movs	r2, r1
 800074c:	425b      	negs	r3, r3
 800074e:	075b      	lsls	r3, r3, #29
 8000750:	08d2      	lsrs	r2, r2, #3
 8000752:	431a      	orrs	r2, r3
 8000754:	2300      	movs	r3, #0
 8000756:	e5df      	b.n	8000318 <__aeabi_dmul+0xbc>
 8000758:	9b03      	ldr	r3, [sp, #12]
 800075a:	4699      	mov	r9, r3
 800075c:	e5fa      	b.n	8000354 <__aeabi_dmul+0xf8>
 800075e:	9801      	ldr	r0, [sp, #4]
 8000760:	f000 fd0a 	bl	8001178 <__clzsi2>
 8000764:	0002      	movs	r2, r0
 8000766:	0003      	movs	r3, r0
 8000768:	3215      	adds	r2, #21
 800076a:	3320      	adds	r3, #32
 800076c:	2a1c      	cmp	r2, #28
 800076e:	dc00      	bgt.n	8000772 <__aeabi_dmul+0x516>
 8000770:	e738      	b.n	80005e4 <__aeabi_dmul+0x388>
 8000772:	9a01      	ldr	r2, [sp, #4]
 8000774:	3808      	subs	r0, #8
 8000776:	4082      	lsls	r2, r0
 8000778:	e73f      	b.n	80005fa <__aeabi_dmul+0x39e>
 800077a:	f000 fcfd 	bl	8001178 <__clzsi2>
 800077e:	2315      	movs	r3, #21
 8000780:	469c      	mov	ip, r3
 8000782:	4484      	add	ip, r0
 8000784:	0002      	movs	r2, r0
 8000786:	4663      	mov	r3, ip
 8000788:	3220      	adds	r2, #32
 800078a:	2b1c      	cmp	r3, #28
 800078c:	dc00      	bgt.n	8000790 <__aeabi_dmul+0x534>
 800078e:	e758      	b.n	8000642 <__aeabi_dmul+0x3e6>
 8000790:	2300      	movs	r3, #0
 8000792:	4698      	mov	r8, r3
 8000794:	0023      	movs	r3, r4
 8000796:	3808      	subs	r0, #8
 8000798:	4083      	lsls	r3, r0
 800079a:	469a      	mov	sl, r3
 800079c:	e762      	b.n	8000664 <__aeabi_dmul+0x408>
 800079e:	001d      	movs	r5, r3
 80007a0:	2300      	movs	r3, #0
 80007a2:	2400      	movs	r4, #0
 80007a4:	2002      	movs	r0, #2
 80007a6:	9301      	str	r3, [sp, #4]
 80007a8:	e5a2      	b.n	80002f0 <__aeabi_dmul+0x94>
 80007aa:	9002      	str	r0, [sp, #8]
 80007ac:	e632      	b.n	8000414 <__aeabi_dmul+0x1b8>
 80007ae:	431c      	orrs	r4, r3
 80007b0:	9b00      	ldr	r3, [sp, #0]
 80007b2:	9a01      	ldr	r2, [sp, #4]
 80007b4:	4699      	mov	r9, r3
 80007b6:	e5ae      	b.n	8000316 <__aeabi_dmul+0xba>
 80007b8:	4b1a      	ldr	r3, [pc, #104]	@ (8000824 <__aeabi_dmul+0x5c8>)
 80007ba:	4652      	mov	r2, sl
 80007bc:	18c3      	adds	r3, r0, r3
 80007be:	4640      	mov	r0, r8
 80007c0:	409a      	lsls	r2, r3
 80007c2:	40c8      	lsrs	r0, r1
 80007c4:	4302      	orrs	r2, r0
 80007c6:	4640      	mov	r0, r8
 80007c8:	4098      	lsls	r0, r3
 80007ca:	0003      	movs	r3, r0
 80007cc:	1e58      	subs	r0, r3, #1
 80007ce:	4183      	sbcs	r3, r0
 80007d0:	4654      	mov	r4, sl
 80007d2:	431a      	orrs	r2, r3
 80007d4:	40cc      	lsrs	r4, r1
 80007d6:	0753      	lsls	r3, r2, #29
 80007d8:	d009      	beq.n	80007ee <__aeabi_dmul+0x592>
 80007da:	230f      	movs	r3, #15
 80007dc:	4013      	ands	r3, r2
 80007de:	2b04      	cmp	r3, #4
 80007e0:	d005      	beq.n	80007ee <__aeabi_dmul+0x592>
 80007e2:	1d13      	adds	r3, r2, #4
 80007e4:	4293      	cmp	r3, r2
 80007e6:	4192      	sbcs	r2, r2
 80007e8:	4252      	negs	r2, r2
 80007ea:	18a4      	adds	r4, r4, r2
 80007ec:	001a      	movs	r2, r3
 80007ee:	0223      	lsls	r3, r4, #8
 80007f0:	d508      	bpl.n	8000804 <__aeabi_dmul+0x5a8>
 80007f2:	2301      	movs	r3, #1
 80007f4:	2400      	movs	r4, #0
 80007f6:	2200      	movs	r2, #0
 80007f8:	e58e      	b.n	8000318 <__aeabi_dmul+0xbc>
 80007fa:	4689      	mov	r9, r1
 80007fc:	2400      	movs	r4, #0
 80007fe:	e58b      	b.n	8000318 <__aeabi_dmul+0xbc>
 8000800:	2300      	movs	r3, #0
 8000802:	e7a5      	b.n	8000750 <__aeabi_dmul+0x4f4>
 8000804:	0763      	lsls	r3, r4, #29
 8000806:	0264      	lsls	r4, r4, #9
 8000808:	0b24      	lsrs	r4, r4, #12
 800080a:	e7a1      	b.n	8000750 <__aeabi_dmul+0x4f4>
 800080c:	9b00      	ldr	r3, [sp, #0]
 800080e:	46a2      	mov	sl, r4
 8000810:	4699      	mov	r9, r3
 8000812:	9b01      	ldr	r3, [sp, #4]
 8000814:	4698      	mov	r8, r3
 8000816:	e737      	b.n	8000688 <__aeabi_dmul+0x42c>
 8000818:	fffffc0d 	.word	0xfffffc0d
 800081c:	000007ff 	.word	0x000007ff
 8000820:	0000043e 	.word	0x0000043e
 8000824:	0000041e 	.word	0x0000041e

08000828 <__aeabi_dsub>:
 8000828:	b5f0      	push	{r4, r5, r6, r7, lr}
 800082a:	4657      	mov	r7, sl
 800082c:	464e      	mov	r6, r9
 800082e:	4645      	mov	r5, r8
 8000830:	46de      	mov	lr, fp
 8000832:	b5e0      	push	{r5, r6, r7, lr}
 8000834:	b083      	sub	sp, #12
 8000836:	9000      	str	r0, [sp, #0]
 8000838:	9101      	str	r1, [sp, #4]
 800083a:	030c      	lsls	r4, r1, #12
 800083c:	004d      	lsls	r5, r1, #1
 800083e:	0fce      	lsrs	r6, r1, #31
 8000840:	0a61      	lsrs	r1, r4, #9
 8000842:	9c00      	ldr	r4, [sp, #0]
 8000844:	005f      	lsls	r7, r3, #1
 8000846:	0f64      	lsrs	r4, r4, #29
 8000848:	430c      	orrs	r4, r1
 800084a:	9900      	ldr	r1, [sp, #0]
 800084c:	9200      	str	r2, [sp, #0]
 800084e:	9301      	str	r3, [sp, #4]
 8000850:	00c8      	lsls	r0, r1, #3
 8000852:	0319      	lsls	r1, r3, #12
 8000854:	0d7b      	lsrs	r3, r7, #21
 8000856:	4699      	mov	r9, r3
 8000858:	9b01      	ldr	r3, [sp, #4]
 800085a:	4fcc      	ldr	r7, [pc, #816]	@ (8000b8c <__aeabi_dsub+0x364>)
 800085c:	0fdb      	lsrs	r3, r3, #31
 800085e:	469c      	mov	ip, r3
 8000860:	0a4b      	lsrs	r3, r1, #9
 8000862:	9900      	ldr	r1, [sp, #0]
 8000864:	4680      	mov	r8, r0
 8000866:	0f49      	lsrs	r1, r1, #29
 8000868:	4319      	orrs	r1, r3
 800086a:	9b00      	ldr	r3, [sp, #0]
 800086c:	468b      	mov	fp, r1
 800086e:	00da      	lsls	r2, r3, #3
 8000870:	4692      	mov	sl, r2
 8000872:	0d6d      	lsrs	r5, r5, #21
 8000874:	45b9      	cmp	r9, r7
 8000876:	d100      	bne.n	800087a <__aeabi_dsub+0x52>
 8000878:	e0bf      	b.n	80009fa <__aeabi_dsub+0x1d2>
 800087a:	2301      	movs	r3, #1
 800087c:	4661      	mov	r1, ip
 800087e:	4059      	eors	r1, r3
 8000880:	464b      	mov	r3, r9
 8000882:	468c      	mov	ip, r1
 8000884:	1aeb      	subs	r3, r5, r3
 8000886:	428e      	cmp	r6, r1
 8000888:	d075      	beq.n	8000976 <__aeabi_dsub+0x14e>
 800088a:	2b00      	cmp	r3, #0
 800088c:	dc00      	bgt.n	8000890 <__aeabi_dsub+0x68>
 800088e:	e2a3      	b.n	8000dd8 <__aeabi_dsub+0x5b0>
 8000890:	4649      	mov	r1, r9
 8000892:	2900      	cmp	r1, #0
 8000894:	d100      	bne.n	8000898 <__aeabi_dsub+0x70>
 8000896:	e0ce      	b.n	8000a36 <__aeabi_dsub+0x20e>
 8000898:	42bd      	cmp	r5, r7
 800089a:	d100      	bne.n	800089e <__aeabi_dsub+0x76>
 800089c:	e200      	b.n	8000ca0 <__aeabi_dsub+0x478>
 800089e:	2701      	movs	r7, #1
 80008a0:	2b38      	cmp	r3, #56	@ 0x38
 80008a2:	dc19      	bgt.n	80008d8 <__aeabi_dsub+0xb0>
 80008a4:	2780      	movs	r7, #128	@ 0x80
 80008a6:	4659      	mov	r1, fp
 80008a8:	043f      	lsls	r7, r7, #16
 80008aa:	4339      	orrs	r1, r7
 80008ac:	468b      	mov	fp, r1
 80008ae:	2b1f      	cmp	r3, #31
 80008b0:	dd00      	ble.n	80008b4 <__aeabi_dsub+0x8c>
 80008b2:	e1fa      	b.n	8000caa <__aeabi_dsub+0x482>
 80008b4:	2720      	movs	r7, #32
 80008b6:	1af9      	subs	r1, r7, r3
 80008b8:	468c      	mov	ip, r1
 80008ba:	4659      	mov	r1, fp
 80008bc:	4667      	mov	r7, ip
 80008be:	40b9      	lsls	r1, r7
 80008c0:	000f      	movs	r7, r1
 80008c2:	0011      	movs	r1, r2
 80008c4:	40d9      	lsrs	r1, r3
 80008c6:	430f      	orrs	r7, r1
 80008c8:	4661      	mov	r1, ip
 80008ca:	408a      	lsls	r2, r1
 80008cc:	1e51      	subs	r1, r2, #1
 80008ce:	418a      	sbcs	r2, r1
 80008d0:	4659      	mov	r1, fp
 80008d2:	40d9      	lsrs	r1, r3
 80008d4:	4317      	orrs	r7, r2
 80008d6:	1a64      	subs	r4, r4, r1
 80008d8:	1bc7      	subs	r7, r0, r7
 80008da:	42b8      	cmp	r0, r7
 80008dc:	4180      	sbcs	r0, r0
 80008de:	4240      	negs	r0, r0
 80008e0:	1a24      	subs	r4, r4, r0
 80008e2:	0223      	lsls	r3, r4, #8
 80008e4:	d400      	bmi.n	80008e8 <__aeabi_dsub+0xc0>
 80008e6:	e140      	b.n	8000b6a <__aeabi_dsub+0x342>
 80008e8:	0264      	lsls	r4, r4, #9
 80008ea:	0a64      	lsrs	r4, r4, #9
 80008ec:	2c00      	cmp	r4, #0
 80008ee:	d100      	bne.n	80008f2 <__aeabi_dsub+0xca>
 80008f0:	e154      	b.n	8000b9c <__aeabi_dsub+0x374>
 80008f2:	0020      	movs	r0, r4
 80008f4:	f000 fc40 	bl	8001178 <__clzsi2>
 80008f8:	0003      	movs	r3, r0
 80008fa:	3b08      	subs	r3, #8
 80008fc:	2120      	movs	r1, #32
 80008fe:	0038      	movs	r0, r7
 8000900:	1aca      	subs	r2, r1, r3
 8000902:	40d0      	lsrs	r0, r2
 8000904:	409c      	lsls	r4, r3
 8000906:	0002      	movs	r2, r0
 8000908:	409f      	lsls	r7, r3
 800090a:	4322      	orrs	r2, r4
 800090c:	429d      	cmp	r5, r3
 800090e:	dd00      	ble.n	8000912 <__aeabi_dsub+0xea>
 8000910:	e1a6      	b.n	8000c60 <__aeabi_dsub+0x438>
 8000912:	1b58      	subs	r0, r3, r5
 8000914:	3001      	adds	r0, #1
 8000916:	1a09      	subs	r1, r1, r0
 8000918:	003c      	movs	r4, r7
 800091a:	408f      	lsls	r7, r1
 800091c:	40c4      	lsrs	r4, r0
 800091e:	1e7b      	subs	r3, r7, #1
 8000920:	419f      	sbcs	r7, r3
 8000922:	0013      	movs	r3, r2
 8000924:	408b      	lsls	r3, r1
 8000926:	4327      	orrs	r7, r4
 8000928:	431f      	orrs	r7, r3
 800092a:	40c2      	lsrs	r2, r0
 800092c:	003b      	movs	r3, r7
 800092e:	0014      	movs	r4, r2
 8000930:	2500      	movs	r5, #0
 8000932:	4313      	orrs	r3, r2
 8000934:	d100      	bne.n	8000938 <__aeabi_dsub+0x110>
 8000936:	e1f7      	b.n	8000d28 <__aeabi_dsub+0x500>
 8000938:	077b      	lsls	r3, r7, #29
 800093a:	d100      	bne.n	800093e <__aeabi_dsub+0x116>
 800093c:	e377      	b.n	800102e <__aeabi_dsub+0x806>
 800093e:	230f      	movs	r3, #15
 8000940:	0038      	movs	r0, r7
 8000942:	403b      	ands	r3, r7
 8000944:	2b04      	cmp	r3, #4
 8000946:	d004      	beq.n	8000952 <__aeabi_dsub+0x12a>
 8000948:	1d38      	adds	r0, r7, #4
 800094a:	42b8      	cmp	r0, r7
 800094c:	41bf      	sbcs	r7, r7
 800094e:	427f      	negs	r7, r7
 8000950:	19e4      	adds	r4, r4, r7
 8000952:	0223      	lsls	r3, r4, #8
 8000954:	d400      	bmi.n	8000958 <__aeabi_dsub+0x130>
 8000956:	e368      	b.n	800102a <__aeabi_dsub+0x802>
 8000958:	4b8c      	ldr	r3, [pc, #560]	@ (8000b8c <__aeabi_dsub+0x364>)
 800095a:	3501      	adds	r5, #1
 800095c:	429d      	cmp	r5, r3
 800095e:	d100      	bne.n	8000962 <__aeabi_dsub+0x13a>
 8000960:	e0f4      	b.n	8000b4c <__aeabi_dsub+0x324>
 8000962:	4b8b      	ldr	r3, [pc, #556]	@ (8000b90 <__aeabi_dsub+0x368>)
 8000964:	056d      	lsls	r5, r5, #21
 8000966:	401c      	ands	r4, r3
 8000968:	0d6d      	lsrs	r5, r5, #21
 800096a:	0767      	lsls	r7, r4, #29
 800096c:	08c0      	lsrs	r0, r0, #3
 800096e:	0264      	lsls	r4, r4, #9
 8000970:	4307      	orrs	r7, r0
 8000972:	0b24      	lsrs	r4, r4, #12
 8000974:	e0ec      	b.n	8000b50 <__aeabi_dsub+0x328>
 8000976:	2b00      	cmp	r3, #0
 8000978:	dc00      	bgt.n	800097c <__aeabi_dsub+0x154>
 800097a:	e329      	b.n	8000fd0 <__aeabi_dsub+0x7a8>
 800097c:	4649      	mov	r1, r9
 800097e:	2900      	cmp	r1, #0
 8000980:	d000      	beq.n	8000984 <__aeabi_dsub+0x15c>
 8000982:	e0d6      	b.n	8000b32 <__aeabi_dsub+0x30a>
 8000984:	4659      	mov	r1, fp
 8000986:	4311      	orrs	r1, r2
 8000988:	d100      	bne.n	800098c <__aeabi_dsub+0x164>
 800098a:	e12e      	b.n	8000bea <__aeabi_dsub+0x3c2>
 800098c:	1e59      	subs	r1, r3, #1
 800098e:	2b01      	cmp	r3, #1
 8000990:	d100      	bne.n	8000994 <__aeabi_dsub+0x16c>
 8000992:	e1e6      	b.n	8000d62 <__aeabi_dsub+0x53a>
 8000994:	42bb      	cmp	r3, r7
 8000996:	d100      	bne.n	800099a <__aeabi_dsub+0x172>
 8000998:	e182      	b.n	8000ca0 <__aeabi_dsub+0x478>
 800099a:	2701      	movs	r7, #1
 800099c:	000b      	movs	r3, r1
 800099e:	2938      	cmp	r1, #56	@ 0x38
 80009a0:	dc14      	bgt.n	80009cc <__aeabi_dsub+0x1a4>
 80009a2:	2b1f      	cmp	r3, #31
 80009a4:	dd00      	ble.n	80009a8 <__aeabi_dsub+0x180>
 80009a6:	e23c      	b.n	8000e22 <__aeabi_dsub+0x5fa>
 80009a8:	2720      	movs	r7, #32
 80009aa:	1af9      	subs	r1, r7, r3
 80009ac:	468c      	mov	ip, r1
 80009ae:	4659      	mov	r1, fp
 80009b0:	4667      	mov	r7, ip
 80009b2:	40b9      	lsls	r1, r7
 80009b4:	000f      	movs	r7, r1
 80009b6:	0011      	movs	r1, r2
 80009b8:	40d9      	lsrs	r1, r3
 80009ba:	430f      	orrs	r7, r1
 80009bc:	4661      	mov	r1, ip
 80009be:	408a      	lsls	r2, r1
 80009c0:	1e51      	subs	r1, r2, #1
 80009c2:	418a      	sbcs	r2, r1
 80009c4:	4659      	mov	r1, fp
 80009c6:	40d9      	lsrs	r1, r3
 80009c8:	4317      	orrs	r7, r2
 80009ca:	1864      	adds	r4, r4, r1
 80009cc:	183f      	adds	r7, r7, r0
 80009ce:	4287      	cmp	r7, r0
 80009d0:	4180      	sbcs	r0, r0
 80009d2:	4240      	negs	r0, r0
 80009d4:	1824      	adds	r4, r4, r0
 80009d6:	0223      	lsls	r3, r4, #8
 80009d8:	d400      	bmi.n	80009dc <__aeabi_dsub+0x1b4>
 80009da:	e0c6      	b.n	8000b6a <__aeabi_dsub+0x342>
 80009dc:	4b6b      	ldr	r3, [pc, #428]	@ (8000b8c <__aeabi_dsub+0x364>)
 80009de:	3501      	adds	r5, #1
 80009e0:	429d      	cmp	r5, r3
 80009e2:	d100      	bne.n	80009e6 <__aeabi_dsub+0x1be>
 80009e4:	e0b2      	b.n	8000b4c <__aeabi_dsub+0x324>
 80009e6:	2101      	movs	r1, #1
 80009e8:	4b69      	ldr	r3, [pc, #420]	@ (8000b90 <__aeabi_dsub+0x368>)
 80009ea:	087a      	lsrs	r2, r7, #1
 80009ec:	401c      	ands	r4, r3
 80009ee:	4039      	ands	r1, r7
 80009f0:	430a      	orrs	r2, r1
 80009f2:	07e7      	lsls	r7, r4, #31
 80009f4:	4317      	orrs	r7, r2
 80009f6:	0864      	lsrs	r4, r4, #1
 80009f8:	e79e      	b.n	8000938 <__aeabi_dsub+0x110>
 80009fa:	4b66      	ldr	r3, [pc, #408]	@ (8000b94 <__aeabi_dsub+0x36c>)
 80009fc:	4311      	orrs	r1, r2
 80009fe:	468a      	mov	sl, r1
 8000a00:	18eb      	adds	r3, r5, r3
 8000a02:	2900      	cmp	r1, #0
 8000a04:	d028      	beq.n	8000a58 <__aeabi_dsub+0x230>
 8000a06:	4566      	cmp	r6, ip
 8000a08:	d02c      	beq.n	8000a64 <__aeabi_dsub+0x23c>
 8000a0a:	2b00      	cmp	r3, #0
 8000a0c:	d05b      	beq.n	8000ac6 <__aeabi_dsub+0x29e>
 8000a0e:	2d00      	cmp	r5, #0
 8000a10:	d100      	bne.n	8000a14 <__aeabi_dsub+0x1ec>
 8000a12:	e12c      	b.n	8000c6e <__aeabi_dsub+0x446>
 8000a14:	465b      	mov	r3, fp
 8000a16:	4666      	mov	r6, ip
 8000a18:	075f      	lsls	r7, r3, #29
 8000a1a:	08d2      	lsrs	r2, r2, #3
 8000a1c:	4317      	orrs	r7, r2
 8000a1e:	08dd      	lsrs	r5, r3, #3
 8000a20:	003b      	movs	r3, r7
 8000a22:	432b      	orrs	r3, r5
 8000a24:	d100      	bne.n	8000a28 <__aeabi_dsub+0x200>
 8000a26:	e0e2      	b.n	8000bee <__aeabi_dsub+0x3c6>
 8000a28:	2480      	movs	r4, #128	@ 0x80
 8000a2a:	0324      	lsls	r4, r4, #12
 8000a2c:	432c      	orrs	r4, r5
 8000a2e:	0324      	lsls	r4, r4, #12
 8000a30:	4d56      	ldr	r5, [pc, #344]	@ (8000b8c <__aeabi_dsub+0x364>)
 8000a32:	0b24      	lsrs	r4, r4, #12
 8000a34:	e08c      	b.n	8000b50 <__aeabi_dsub+0x328>
 8000a36:	4659      	mov	r1, fp
 8000a38:	4311      	orrs	r1, r2
 8000a3a:	d100      	bne.n	8000a3e <__aeabi_dsub+0x216>
 8000a3c:	e0d5      	b.n	8000bea <__aeabi_dsub+0x3c2>
 8000a3e:	1e59      	subs	r1, r3, #1
 8000a40:	2b01      	cmp	r3, #1
 8000a42:	d100      	bne.n	8000a46 <__aeabi_dsub+0x21e>
 8000a44:	e1b9      	b.n	8000dba <__aeabi_dsub+0x592>
 8000a46:	42bb      	cmp	r3, r7
 8000a48:	d100      	bne.n	8000a4c <__aeabi_dsub+0x224>
 8000a4a:	e1b1      	b.n	8000db0 <__aeabi_dsub+0x588>
 8000a4c:	2701      	movs	r7, #1
 8000a4e:	000b      	movs	r3, r1
 8000a50:	2938      	cmp	r1, #56	@ 0x38
 8000a52:	dd00      	ble.n	8000a56 <__aeabi_dsub+0x22e>
 8000a54:	e740      	b.n	80008d8 <__aeabi_dsub+0xb0>
 8000a56:	e72a      	b.n	80008ae <__aeabi_dsub+0x86>
 8000a58:	4661      	mov	r1, ip
 8000a5a:	2701      	movs	r7, #1
 8000a5c:	4079      	eors	r1, r7
 8000a5e:	468c      	mov	ip, r1
 8000a60:	4566      	cmp	r6, ip
 8000a62:	d1d2      	bne.n	8000a0a <__aeabi_dsub+0x1e2>
 8000a64:	2b00      	cmp	r3, #0
 8000a66:	d100      	bne.n	8000a6a <__aeabi_dsub+0x242>
 8000a68:	e0c5      	b.n	8000bf6 <__aeabi_dsub+0x3ce>
 8000a6a:	2d00      	cmp	r5, #0
 8000a6c:	d000      	beq.n	8000a70 <__aeabi_dsub+0x248>
 8000a6e:	e155      	b.n	8000d1c <__aeabi_dsub+0x4f4>
 8000a70:	464b      	mov	r3, r9
 8000a72:	0025      	movs	r5, r4
 8000a74:	4305      	orrs	r5, r0
 8000a76:	d100      	bne.n	8000a7a <__aeabi_dsub+0x252>
 8000a78:	e212      	b.n	8000ea0 <__aeabi_dsub+0x678>
 8000a7a:	1e59      	subs	r1, r3, #1
 8000a7c:	468c      	mov	ip, r1
 8000a7e:	2b01      	cmp	r3, #1
 8000a80:	d100      	bne.n	8000a84 <__aeabi_dsub+0x25c>
 8000a82:	e249      	b.n	8000f18 <__aeabi_dsub+0x6f0>
 8000a84:	4d41      	ldr	r5, [pc, #260]	@ (8000b8c <__aeabi_dsub+0x364>)
 8000a86:	42ab      	cmp	r3, r5
 8000a88:	d100      	bne.n	8000a8c <__aeabi_dsub+0x264>
 8000a8a:	e28f      	b.n	8000fac <__aeabi_dsub+0x784>
 8000a8c:	2701      	movs	r7, #1
 8000a8e:	2938      	cmp	r1, #56	@ 0x38
 8000a90:	dc11      	bgt.n	8000ab6 <__aeabi_dsub+0x28e>
 8000a92:	4663      	mov	r3, ip
 8000a94:	2b1f      	cmp	r3, #31
 8000a96:	dd00      	ble.n	8000a9a <__aeabi_dsub+0x272>
 8000a98:	e25b      	b.n	8000f52 <__aeabi_dsub+0x72a>
 8000a9a:	4661      	mov	r1, ip
 8000a9c:	2320      	movs	r3, #32
 8000a9e:	0027      	movs	r7, r4
 8000aa0:	1a5b      	subs	r3, r3, r1
 8000aa2:	0005      	movs	r5, r0
 8000aa4:	4098      	lsls	r0, r3
 8000aa6:	409f      	lsls	r7, r3
 8000aa8:	40cd      	lsrs	r5, r1
 8000aaa:	1e43      	subs	r3, r0, #1
 8000aac:	4198      	sbcs	r0, r3
 8000aae:	40cc      	lsrs	r4, r1
 8000ab0:	432f      	orrs	r7, r5
 8000ab2:	4307      	orrs	r7, r0
 8000ab4:	44a3      	add	fp, r4
 8000ab6:	18bf      	adds	r7, r7, r2
 8000ab8:	4297      	cmp	r7, r2
 8000aba:	4192      	sbcs	r2, r2
 8000abc:	4252      	negs	r2, r2
 8000abe:	445a      	add	r2, fp
 8000ac0:	0014      	movs	r4, r2
 8000ac2:	464d      	mov	r5, r9
 8000ac4:	e787      	b.n	80009d6 <__aeabi_dsub+0x1ae>
 8000ac6:	4f34      	ldr	r7, [pc, #208]	@ (8000b98 <__aeabi_dsub+0x370>)
 8000ac8:	1c6b      	adds	r3, r5, #1
 8000aca:	423b      	tst	r3, r7
 8000acc:	d000      	beq.n	8000ad0 <__aeabi_dsub+0x2a8>
 8000ace:	e0b6      	b.n	8000c3e <__aeabi_dsub+0x416>
 8000ad0:	4659      	mov	r1, fp
 8000ad2:	0023      	movs	r3, r4
 8000ad4:	4311      	orrs	r1, r2
 8000ad6:	000f      	movs	r7, r1
 8000ad8:	4303      	orrs	r3, r0
 8000ada:	2d00      	cmp	r5, #0
 8000adc:	d000      	beq.n	8000ae0 <__aeabi_dsub+0x2b8>
 8000ade:	e126      	b.n	8000d2e <__aeabi_dsub+0x506>
 8000ae0:	2b00      	cmp	r3, #0
 8000ae2:	d100      	bne.n	8000ae6 <__aeabi_dsub+0x2be>
 8000ae4:	e1c0      	b.n	8000e68 <__aeabi_dsub+0x640>
 8000ae6:	2900      	cmp	r1, #0
 8000ae8:	d100      	bne.n	8000aec <__aeabi_dsub+0x2c4>
 8000aea:	e0a1      	b.n	8000c30 <__aeabi_dsub+0x408>
 8000aec:	1a83      	subs	r3, r0, r2
 8000aee:	4698      	mov	r8, r3
 8000af0:	465b      	mov	r3, fp
 8000af2:	4540      	cmp	r0, r8
 8000af4:	41ad      	sbcs	r5, r5
 8000af6:	1ae3      	subs	r3, r4, r3
 8000af8:	426d      	negs	r5, r5
 8000afa:	1b5b      	subs	r3, r3, r5
 8000afc:	2580      	movs	r5, #128	@ 0x80
 8000afe:	042d      	lsls	r5, r5, #16
 8000b00:	422b      	tst	r3, r5
 8000b02:	d100      	bne.n	8000b06 <__aeabi_dsub+0x2de>
 8000b04:	e14b      	b.n	8000d9e <__aeabi_dsub+0x576>
 8000b06:	465b      	mov	r3, fp
 8000b08:	1a10      	subs	r0, r2, r0
 8000b0a:	4282      	cmp	r2, r0
 8000b0c:	4192      	sbcs	r2, r2
 8000b0e:	1b1c      	subs	r4, r3, r4
 8000b10:	0007      	movs	r7, r0
 8000b12:	2601      	movs	r6, #1
 8000b14:	4663      	mov	r3, ip
 8000b16:	4252      	negs	r2, r2
 8000b18:	1aa4      	subs	r4, r4, r2
 8000b1a:	4327      	orrs	r7, r4
 8000b1c:	401e      	ands	r6, r3
 8000b1e:	2f00      	cmp	r7, #0
 8000b20:	d100      	bne.n	8000b24 <__aeabi_dsub+0x2fc>
 8000b22:	e142      	b.n	8000daa <__aeabi_dsub+0x582>
 8000b24:	422c      	tst	r4, r5
 8000b26:	d100      	bne.n	8000b2a <__aeabi_dsub+0x302>
 8000b28:	e26d      	b.n	8001006 <__aeabi_dsub+0x7de>
 8000b2a:	4b19      	ldr	r3, [pc, #100]	@ (8000b90 <__aeabi_dsub+0x368>)
 8000b2c:	2501      	movs	r5, #1
 8000b2e:	401c      	ands	r4, r3
 8000b30:	e71b      	b.n	800096a <__aeabi_dsub+0x142>
 8000b32:	42bd      	cmp	r5, r7
 8000b34:	d100      	bne.n	8000b38 <__aeabi_dsub+0x310>
 8000b36:	e13b      	b.n	8000db0 <__aeabi_dsub+0x588>
 8000b38:	2701      	movs	r7, #1
 8000b3a:	2b38      	cmp	r3, #56	@ 0x38
 8000b3c:	dd00      	ble.n	8000b40 <__aeabi_dsub+0x318>
 8000b3e:	e745      	b.n	80009cc <__aeabi_dsub+0x1a4>
 8000b40:	2780      	movs	r7, #128	@ 0x80
 8000b42:	4659      	mov	r1, fp
 8000b44:	043f      	lsls	r7, r7, #16
 8000b46:	4339      	orrs	r1, r7
 8000b48:	468b      	mov	fp, r1
 8000b4a:	e72a      	b.n	80009a2 <__aeabi_dsub+0x17a>
 8000b4c:	2400      	movs	r4, #0
 8000b4e:	2700      	movs	r7, #0
 8000b50:	052d      	lsls	r5, r5, #20
 8000b52:	4325      	orrs	r5, r4
 8000b54:	07f6      	lsls	r6, r6, #31
 8000b56:	4335      	orrs	r5, r6
 8000b58:	0038      	movs	r0, r7
 8000b5a:	0029      	movs	r1, r5
 8000b5c:	b003      	add	sp, #12
 8000b5e:	bcf0      	pop	{r4, r5, r6, r7}
 8000b60:	46bb      	mov	fp, r7
 8000b62:	46b2      	mov	sl, r6
 8000b64:	46a9      	mov	r9, r5
 8000b66:	46a0      	mov	r8, r4
 8000b68:	bdf0      	pop	{r4, r5, r6, r7, pc}
 8000b6a:	077b      	lsls	r3, r7, #29
 8000b6c:	d004      	beq.n	8000b78 <__aeabi_dsub+0x350>
 8000b6e:	230f      	movs	r3, #15
 8000b70:	403b      	ands	r3, r7
 8000b72:	2b04      	cmp	r3, #4
 8000b74:	d000      	beq.n	8000b78 <__aeabi_dsub+0x350>
 8000b76:	e6e7      	b.n	8000948 <__aeabi_dsub+0x120>
 8000b78:	002b      	movs	r3, r5
 8000b7a:	08f8      	lsrs	r0, r7, #3
 8000b7c:	4a03      	ldr	r2, [pc, #12]	@ (8000b8c <__aeabi_dsub+0x364>)
 8000b7e:	0767      	lsls	r7, r4, #29
 8000b80:	4307      	orrs	r7, r0
 8000b82:	08e5      	lsrs	r5, r4, #3
 8000b84:	4293      	cmp	r3, r2
 8000b86:	d100      	bne.n	8000b8a <__aeabi_dsub+0x362>
 8000b88:	e74a      	b.n	8000a20 <__aeabi_dsub+0x1f8>
 8000b8a:	e0a5      	b.n	8000cd8 <__aeabi_dsub+0x4b0>
 8000b8c:	000007ff 	.word	0x000007ff
 8000b90:	ff7fffff 	.word	0xff7fffff
 8000b94:	fffff801 	.word	0xfffff801
 8000b98:	000007fe 	.word	0x000007fe
 8000b9c:	0038      	movs	r0, r7
 8000b9e:	f000 faeb 	bl	8001178 <__clzsi2>
 8000ba2:	0003      	movs	r3, r0
 8000ba4:	3318      	adds	r3, #24
 8000ba6:	2b1f      	cmp	r3, #31
 8000ba8:	dc00      	bgt.n	8000bac <__aeabi_dsub+0x384>
 8000baa:	e6a7      	b.n	80008fc <__aeabi_dsub+0xd4>
 8000bac:	003a      	movs	r2, r7
 8000bae:	3808      	subs	r0, #8
 8000bb0:	4082      	lsls	r2, r0
 8000bb2:	429d      	cmp	r5, r3
 8000bb4:	dd00      	ble.n	8000bb8 <__aeabi_dsub+0x390>
 8000bb6:	e08a      	b.n	8000cce <__aeabi_dsub+0x4a6>
 8000bb8:	1b5b      	subs	r3, r3, r5
 8000bba:	1c58      	adds	r0, r3, #1
 8000bbc:	281f      	cmp	r0, #31
 8000bbe:	dc00      	bgt.n	8000bc2 <__aeabi_dsub+0x39a>
 8000bc0:	e1d8      	b.n	8000f74 <__aeabi_dsub+0x74c>
 8000bc2:	0017      	movs	r7, r2
 8000bc4:	3b1f      	subs	r3, #31
 8000bc6:	40df      	lsrs	r7, r3
 8000bc8:	2820      	cmp	r0, #32
 8000bca:	d005      	beq.n	8000bd8 <__aeabi_dsub+0x3b0>
 8000bcc:	2340      	movs	r3, #64	@ 0x40
 8000bce:	1a1b      	subs	r3, r3, r0
 8000bd0:	409a      	lsls	r2, r3
 8000bd2:	1e53      	subs	r3, r2, #1
 8000bd4:	419a      	sbcs	r2, r3
 8000bd6:	4317      	orrs	r7, r2
 8000bd8:	2500      	movs	r5, #0
 8000bda:	2f00      	cmp	r7, #0
 8000bdc:	d100      	bne.n	8000be0 <__aeabi_dsub+0x3b8>
 8000bde:	e0e5      	b.n	8000dac <__aeabi_dsub+0x584>
 8000be0:	077b      	lsls	r3, r7, #29
 8000be2:	d000      	beq.n	8000be6 <__aeabi_dsub+0x3be>
 8000be4:	e6ab      	b.n	800093e <__aeabi_dsub+0x116>
 8000be6:	002c      	movs	r4, r5
 8000be8:	e7c6      	b.n	8000b78 <__aeabi_dsub+0x350>
 8000bea:	08c0      	lsrs	r0, r0, #3
 8000bec:	e7c6      	b.n	8000b7c <__aeabi_dsub+0x354>
 8000bee:	2700      	movs	r7, #0
 8000bf0:	2400      	movs	r4, #0
 8000bf2:	4dd1      	ldr	r5, [pc, #836]	@ (8000f38 <__aeabi_dsub+0x710>)
 8000bf4:	e7ac      	b.n	8000b50 <__aeabi_dsub+0x328>
 8000bf6:	4fd1      	ldr	r7, [pc, #836]	@ (8000f3c <__aeabi_dsub+0x714>)
 8000bf8:	1c6b      	adds	r3, r5, #1
 8000bfa:	423b      	tst	r3, r7
 8000bfc:	d171      	bne.n	8000ce2 <__aeabi_dsub+0x4ba>
 8000bfe:	0023      	movs	r3, r4
 8000c00:	4303      	orrs	r3, r0
 8000c02:	2d00      	cmp	r5, #0
 8000c04:	d000      	beq.n	8000c08 <__aeabi_dsub+0x3e0>
 8000c06:	e14e      	b.n	8000ea6 <__aeabi_dsub+0x67e>
 8000c08:	4657      	mov	r7, sl
 8000c0a:	2b00      	cmp	r3, #0
 8000c0c:	d100      	bne.n	8000c10 <__aeabi_dsub+0x3e8>
 8000c0e:	e1b5      	b.n	8000f7c <__aeabi_dsub+0x754>
 8000c10:	2f00      	cmp	r7, #0
 8000c12:	d00d      	beq.n	8000c30 <__aeabi_dsub+0x408>
 8000c14:	1883      	adds	r3, r0, r2
 8000c16:	4283      	cmp	r3, r0
 8000c18:	4180      	sbcs	r0, r0
 8000c1a:	445c      	add	r4, fp
 8000c1c:	4240      	negs	r0, r0
 8000c1e:	1824      	adds	r4, r4, r0
 8000c20:	0222      	lsls	r2, r4, #8
 8000c22:	d500      	bpl.n	8000c26 <__aeabi_dsub+0x3fe>
 8000c24:	e1c8      	b.n	8000fb8 <__aeabi_dsub+0x790>
 8000c26:	001f      	movs	r7, r3
 8000c28:	4698      	mov	r8, r3
 8000c2a:	4327      	orrs	r7, r4
 8000c2c:	d100      	bne.n	8000c30 <__aeabi_dsub+0x408>
 8000c2e:	e0bc      	b.n	8000daa <__aeabi_dsub+0x582>
 8000c30:	4643      	mov	r3, r8
 8000c32:	0767      	lsls	r7, r4, #29
 8000c34:	08db      	lsrs	r3, r3, #3
 8000c36:	431f      	orrs	r7, r3
 8000c38:	08e5      	lsrs	r5, r4, #3
 8000c3a:	2300      	movs	r3, #0
 8000c3c:	e04c      	b.n	8000cd8 <__aeabi_dsub+0x4b0>
 8000c3e:	1a83      	subs	r3, r0, r2
 8000c40:	4698      	mov	r8, r3
 8000c42:	465b      	mov	r3, fp
 8000c44:	4540      	cmp	r0, r8
 8000c46:	41bf      	sbcs	r7, r7
 8000c48:	1ae3      	subs	r3, r4, r3
 8000c4a:	427f      	negs	r7, r7
 8000c4c:	1bdb      	subs	r3, r3, r7
 8000c4e:	021f      	lsls	r7, r3, #8
 8000c50:	d47c      	bmi.n	8000d4c <__aeabi_dsub+0x524>
 8000c52:	4647      	mov	r7, r8
 8000c54:	431f      	orrs	r7, r3
 8000c56:	d100      	bne.n	8000c5a <__aeabi_dsub+0x432>
 8000c58:	e0a6      	b.n	8000da8 <__aeabi_dsub+0x580>
 8000c5a:	001c      	movs	r4, r3
 8000c5c:	4647      	mov	r7, r8
 8000c5e:	e645      	b.n	80008ec <__aeabi_dsub+0xc4>
 8000c60:	4cb7      	ldr	r4, [pc, #732]	@ (8000f40 <__aeabi_dsub+0x718>)
 8000c62:	1aed      	subs	r5, r5, r3
 8000c64:	4014      	ands	r4, r2
 8000c66:	077b      	lsls	r3, r7, #29
 8000c68:	d000      	beq.n	8000c6c <__aeabi_dsub+0x444>
 8000c6a:	e780      	b.n	8000b6e <__aeabi_dsub+0x346>
 8000c6c:	e784      	b.n	8000b78 <__aeabi_dsub+0x350>
 8000c6e:	464b      	mov	r3, r9
 8000c70:	0025      	movs	r5, r4
 8000c72:	4305      	orrs	r5, r0
 8000c74:	d066      	beq.n	8000d44 <__aeabi_dsub+0x51c>
 8000c76:	1e5f      	subs	r7, r3, #1
 8000c78:	2b01      	cmp	r3, #1
 8000c7a:	d100      	bne.n	8000c7e <__aeabi_dsub+0x456>
 8000c7c:	e0fc      	b.n	8000e78 <__aeabi_dsub+0x650>
 8000c7e:	4dae      	ldr	r5, [pc, #696]	@ (8000f38 <__aeabi_dsub+0x710>)
 8000c80:	42ab      	cmp	r3, r5
 8000c82:	d100      	bne.n	8000c86 <__aeabi_dsub+0x45e>
 8000c84:	e15e      	b.n	8000f44 <__aeabi_dsub+0x71c>
 8000c86:	4666      	mov	r6, ip
 8000c88:	2f38      	cmp	r7, #56	@ 0x38
 8000c8a:	dc00      	bgt.n	8000c8e <__aeabi_dsub+0x466>
 8000c8c:	e0b4      	b.n	8000df8 <__aeabi_dsub+0x5d0>
 8000c8e:	2001      	movs	r0, #1
 8000c90:	1a17      	subs	r7, r2, r0
 8000c92:	42ba      	cmp	r2, r7
 8000c94:	4192      	sbcs	r2, r2
 8000c96:	465b      	mov	r3, fp
 8000c98:	4252      	negs	r2, r2
 8000c9a:	464d      	mov	r5, r9
 8000c9c:	1a9c      	subs	r4, r3, r2
 8000c9e:	e620      	b.n	80008e2 <__aeabi_dsub+0xba>
 8000ca0:	0767      	lsls	r7, r4, #29
 8000ca2:	08c0      	lsrs	r0, r0, #3
 8000ca4:	4307      	orrs	r7, r0
 8000ca6:	08e5      	lsrs	r5, r4, #3
 8000ca8:	e6ba      	b.n	8000a20 <__aeabi_dsub+0x1f8>
 8000caa:	001f      	movs	r7, r3
 8000cac:	4659      	mov	r1, fp
 8000cae:	3f20      	subs	r7, #32
 8000cb0:	40f9      	lsrs	r1, r7
 8000cb2:	000f      	movs	r7, r1
 8000cb4:	2b20      	cmp	r3, #32
 8000cb6:	d005      	beq.n	8000cc4 <__aeabi_dsub+0x49c>
 8000cb8:	2140      	movs	r1, #64	@ 0x40
 8000cba:	1acb      	subs	r3, r1, r3
 8000cbc:	4659      	mov	r1, fp
 8000cbe:	4099      	lsls	r1, r3
 8000cc0:	430a      	orrs	r2, r1
 8000cc2:	4692      	mov	sl, r2
 8000cc4:	4653      	mov	r3, sl
 8000cc6:	1e5a      	subs	r2, r3, #1
 8000cc8:	4193      	sbcs	r3, r2
 8000cca:	431f      	orrs	r7, r3
 8000ccc:	e604      	b.n	80008d8 <__aeabi_dsub+0xb0>
 8000cce:	1aeb      	subs	r3, r5, r3
 8000cd0:	4d9b      	ldr	r5, [pc, #620]	@ (8000f40 <__aeabi_dsub+0x718>)
 8000cd2:	4015      	ands	r5, r2
 8000cd4:	076f      	lsls	r7, r5, #29
 8000cd6:	08ed      	lsrs	r5, r5, #3
 8000cd8:	032c      	lsls	r4, r5, #12
 8000cda:	055d      	lsls	r5, r3, #21
 8000cdc:	0b24      	lsrs	r4, r4, #12
 8000cde:	0d6d      	lsrs	r5, r5, #21
 8000ce0:	e736      	b.n	8000b50 <__aeabi_dsub+0x328>
 8000ce2:	4d95      	ldr	r5, [pc, #596]	@ (8000f38 <__aeabi_dsub+0x710>)
 8000ce4:	42ab      	cmp	r3, r5
 8000ce6:	d100      	bne.n	8000cea <__aeabi_dsub+0x4c2>
 8000ce8:	e0d6      	b.n	8000e98 <__aeabi_dsub+0x670>
 8000cea:	1882      	adds	r2, r0, r2
 8000cec:	0021      	movs	r1, r4
 8000cee:	4282      	cmp	r2, r0
 8000cf0:	4180      	sbcs	r0, r0
 8000cf2:	4459      	add	r1, fp
 8000cf4:	4240      	negs	r0, r0
 8000cf6:	1808      	adds	r0, r1, r0
 8000cf8:	07c7      	lsls	r7, r0, #31
 8000cfa:	0852      	lsrs	r2, r2, #1
 8000cfc:	4317      	orrs	r7, r2
 8000cfe:	0844      	lsrs	r4, r0, #1
 8000d00:	0752      	lsls	r2, r2, #29
 8000d02:	d400      	bmi.n	8000d06 <__aeabi_dsub+0x4de>
 8000d04:	e185      	b.n	8001012 <__aeabi_dsub+0x7ea>
 8000d06:	220f      	movs	r2, #15
 8000d08:	001d      	movs	r5, r3
 8000d0a:	403a      	ands	r2, r7
 8000d0c:	2a04      	cmp	r2, #4
 8000d0e:	d000      	beq.n	8000d12 <__aeabi_dsub+0x4ea>
 8000d10:	e61a      	b.n	8000948 <__aeabi_dsub+0x120>
 8000d12:	08ff      	lsrs	r7, r7, #3
 8000d14:	0764      	lsls	r4, r4, #29
 8000d16:	4327      	orrs	r7, r4
 8000d18:	0905      	lsrs	r5, r0, #4
 8000d1a:	e7dd      	b.n	8000cd8 <__aeabi_dsub+0x4b0>
 8000d1c:	465b      	mov	r3, fp
 8000d1e:	08d2      	lsrs	r2, r2, #3
 8000d20:	075f      	lsls	r7, r3, #29
 8000d22:	4317      	orrs	r7, r2
 8000d24:	08dd      	lsrs	r5, r3, #3
 8000d26:	e67b      	b.n	8000a20 <__aeabi_dsub+0x1f8>
 8000d28:	2700      	movs	r7, #0
 8000d2a:	2400      	movs	r4, #0
 8000d2c:	e710      	b.n	8000b50 <__aeabi_dsub+0x328>
 8000d2e:	2b00      	cmp	r3, #0
 8000d30:	d000      	beq.n	8000d34 <__aeabi_dsub+0x50c>
 8000d32:	e0d6      	b.n	8000ee2 <__aeabi_dsub+0x6ba>
 8000d34:	2900      	cmp	r1, #0
 8000d36:	d000      	beq.n	8000d3a <__aeabi_dsub+0x512>
 8000d38:	e12f      	b.n	8000f9a <__aeabi_dsub+0x772>
 8000d3a:	2480      	movs	r4, #128	@ 0x80
 8000d3c:	2600      	movs	r6, #0
 8000d3e:	4d7e      	ldr	r5, [pc, #504]	@ (8000f38 <__aeabi_dsub+0x710>)
 8000d40:	0324      	lsls	r4, r4, #12
 8000d42:	e705      	b.n	8000b50 <__aeabi_dsub+0x328>
 8000d44:	4666      	mov	r6, ip
 8000d46:	465c      	mov	r4, fp
 8000d48:	08d0      	lsrs	r0, r2, #3
 8000d4a:	e717      	b.n	8000b7c <__aeabi_dsub+0x354>
 8000d4c:	465b      	mov	r3, fp
 8000d4e:	1a17      	subs	r7, r2, r0
 8000d50:	42ba      	cmp	r2, r7
 8000d52:	4192      	sbcs	r2, r2
 8000d54:	1b1c      	subs	r4, r3, r4
 8000d56:	2601      	movs	r6, #1
 8000d58:	4663      	mov	r3, ip
 8000d5a:	4252      	negs	r2, r2
 8000d5c:	1aa4      	subs	r4, r4, r2
 8000d5e:	401e      	ands	r6, r3
 8000d60:	e5c4      	b.n	80008ec <__aeabi_dsub+0xc4>
 8000d62:	1883      	adds	r3, r0, r2
 8000d64:	4283      	cmp	r3, r0
 8000d66:	4180      	sbcs	r0, r0
 8000d68:	445c      	add	r4, fp
 8000d6a:	4240      	negs	r0, r0
 8000d6c:	1825      	adds	r5, r4, r0
 8000d6e:	022a      	lsls	r2, r5, #8
 8000d70:	d400      	bmi.n	8000d74 <__aeabi_dsub+0x54c>
 8000d72:	e0da      	b.n	8000f2a <__aeabi_dsub+0x702>
 8000d74:	4a72      	ldr	r2, [pc, #456]	@ (8000f40 <__aeabi_dsub+0x718>)
 8000d76:	085b      	lsrs	r3, r3, #1
 8000d78:	4015      	ands	r5, r2
 8000d7a:	07ea      	lsls	r2, r5, #31
 8000d7c:	431a      	orrs	r2, r3
 8000d7e:	0869      	lsrs	r1, r5, #1
 8000d80:	075b      	lsls	r3, r3, #29
 8000d82:	d400      	bmi.n	8000d86 <__aeabi_dsub+0x55e>
 8000d84:	e14a      	b.n	800101c <__aeabi_dsub+0x7f4>
 8000d86:	230f      	movs	r3, #15
 8000d88:	4013      	ands	r3, r2
 8000d8a:	2b04      	cmp	r3, #4
 8000d8c:	d100      	bne.n	8000d90 <__aeabi_dsub+0x568>
 8000d8e:	e0fc      	b.n	8000f8a <__aeabi_dsub+0x762>
 8000d90:	1d17      	adds	r7, r2, #4
 8000d92:	4297      	cmp	r7, r2
 8000d94:	41a4      	sbcs	r4, r4
 8000d96:	4264      	negs	r4, r4
 8000d98:	2502      	movs	r5, #2
 8000d9a:	1864      	adds	r4, r4, r1
 8000d9c:	e6ec      	b.n	8000b78 <__aeabi_dsub+0x350>
 8000d9e:	4647      	mov	r7, r8
 8000da0:	001c      	movs	r4, r3
 8000da2:	431f      	orrs	r7, r3
 8000da4:	d000      	beq.n	8000da8 <__aeabi_dsub+0x580>
 8000da6:	e743      	b.n	8000c30 <__aeabi_dsub+0x408>
 8000da8:	2600      	movs	r6, #0
 8000daa:	2500      	movs	r5, #0
 8000dac:	2400      	movs	r4, #0
 8000dae:	e6cf      	b.n	8000b50 <__aeabi_dsub+0x328>
 8000db0:	08c0      	lsrs	r0, r0, #3
 8000db2:	0767      	lsls	r7, r4, #29
 8000db4:	4307      	orrs	r7, r0
 8000db6:	08e5      	lsrs	r5, r4, #3
 8000db8:	e632      	b.n	8000a20 <__aeabi_dsub+0x1f8>
 8000dba:	1a87      	subs	r7, r0, r2
 8000dbc:	465b      	mov	r3, fp
 8000dbe:	42b8      	cmp	r0, r7
 8000dc0:	4180      	sbcs	r0, r0
 8000dc2:	1ae4      	subs	r4, r4, r3
 8000dc4:	4240      	negs	r0, r0
 8000dc6:	1a24      	subs	r4, r4, r0
 8000dc8:	0223      	lsls	r3, r4, #8
 8000dca:	d428      	bmi.n	8000e1e <__aeabi_dsub+0x5f6>
 8000dcc:	0763      	lsls	r3, r4, #29
 8000dce:	08ff      	lsrs	r7, r7, #3
 8000dd0:	431f      	orrs	r7, r3
 8000dd2:	08e5      	lsrs	r5, r4, #3
 8000dd4:	2301      	movs	r3, #1
 8000dd6:	e77f      	b.n	8000cd8 <__aeabi_dsub+0x4b0>
 8000dd8:	2b00      	cmp	r3, #0
 8000dda:	d100      	bne.n	8000dde <__aeabi_dsub+0x5b6>
 8000ddc:	e673      	b.n	8000ac6 <__aeabi_dsub+0x29e>
 8000dde:	464b      	mov	r3, r9
 8000de0:	1b5f      	subs	r7, r3, r5
 8000de2:	003b      	movs	r3, r7
 8000de4:	2d00      	cmp	r5, #0
 8000de6:	d100      	bne.n	8000dea <__aeabi_dsub+0x5c2>
 8000de8:	e742      	b.n	8000c70 <__aeabi_dsub+0x448>
 8000dea:	2f38      	cmp	r7, #56	@ 0x38
 8000dec:	dd00      	ble.n	8000df0 <__aeabi_dsub+0x5c8>
 8000dee:	e0ec      	b.n	8000fca <__aeabi_dsub+0x7a2>
 8000df0:	2380      	movs	r3, #128	@ 0x80
 8000df2:	000e      	movs	r6, r1
 8000df4:	041b      	lsls	r3, r3, #16
 8000df6:	431c      	orrs	r4, r3
 8000df8:	2f1f      	cmp	r7, #31
 8000dfa:	dc25      	bgt.n	8000e48 <__aeabi_dsub+0x620>
 8000dfc:	2520      	movs	r5, #32
 8000dfe:	0023      	movs	r3, r4
 8000e00:	1bed      	subs	r5, r5, r7
 8000e02:	0001      	movs	r1, r0
 8000e04:	40a8      	lsls	r0, r5
 8000e06:	40ab      	lsls	r3, r5
 8000e08:	40f9      	lsrs	r1, r7
 8000e0a:	1e45      	subs	r5, r0, #1
 8000e0c:	41a8      	sbcs	r0, r5
 8000e0e:	430b      	orrs	r3, r1
 8000e10:	40fc      	lsrs	r4, r7
 8000e12:	4318      	orrs	r0, r3
 8000e14:	465b      	mov	r3, fp
 8000e16:	1b1b      	subs	r3, r3, r4
 8000e18:	469b      	mov	fp, r3
 8000e1a:	e739      	b.n	8000c90 <__aeabi_dsub+0x468>
 8000e1c:	4666      	mov	r6, ip
 8000e1e:	2501      	movs	r5, #1
 8000e20:	e562      	b.n	80008e8 <__aeabi_dsub+0xc0>
 8000e22:	001f      	movs	r7, r3
 8000e24:	4659      	mov	r1, fp
 8000e26:	3f20      	subs	r7, #32
 8000e28:	40f9      	lsrs	r1, r7
 8000e2a:	468c      	mov	ip, r1
 8000e2c:	2b20      	cmp	r3, #32
 8000e2e:	d005      	beq.n	8000e3c <__aeabi_dsub+0x614>
 8000e30:	2740      	movs	r7, #64	@ 0x40
 8000e32:	4659      	mov	r1, fp
 8000e34:	1afb      	subs	r3, r7, r3
 8000e36:	4099      	lsls	r1, r3
 8000e38:	430a      	orrs	r2, r1
 8000e3a:	4692      	mov	sl, r2
 8000e3c:	4657      	mov	r7, sl
 8000e3e:	1e7b      	subs	r3, r7, #1
 8000e40:	419f      	sbcs	r7, r3
 8000e42:	4663      	mov	r3, ip
 8000e44:	431f      	orrs	r7, r3
 8000e46:	e5c1      	b.n	80009cc <__aeabi_dsub+0x1a4>
 8000e48:	003b      	movs	r3, r7
 8000e4a:	0025      	movs	r5, r4
 8000e4c:	3b20      	subs	r3, #32
 8000e4e:	40dd      	lsrs	r5, r3
 8000e50:	2f20      	cmp	r7, #32
 8000e52:	d004      	beq.n	8000e5e <__aeabi_dsub+0x636>
 8000e54:	2340      	movs	r3, #64	@ 0x40
 8000e56:	1bdb      	subs	r3, r3, r7
 8000e58:	409c      	lsls	r4, r3
 8000e5a:	4320      	orrs	r0, r4
 8000e5c:	4680      	mov	r8, r0
 8000e5e:	4640      	mov	r0, r8
 8000e60:	1e43      	subs	r3, r0, #1
 8000e62:	4198      	sbcs	r0, r3
 8000e64:	4328      	orrs	r0, r5
 8000e66:	e713      	b.n	8000c90 <__aeabi_dsub+0x468>
 8000e68:	2900      	cmp	r1, #0
 8000e6a:	d09d      	beq.n	8000da8 <__aeabi_dsub+0x580>
 8000e6c:	2601      	movs	r6, #1
 8000e6e:	4663      	mov	r3, ip
 8000e70:	465c      	mov	r4, fp
 8000e72:	4690      	mov	r8, r2
 8000e74:	401e      	ands	r6, r3
 8000e76:	e6db      	b.n	8000c30 <__aeabi_dsub+0x408>
 8000e78:	1a17      	subs	r7, r2, r0
 8000e7a:	465b      	mov	r3, fp
 8000e7c:	42ba      	cmp	r2, r7
 8000e7e:	4192      	sbcs	r2, r2
 8000e80:	1b1c      	subs	r4, r3, r4
 8000e82:	4252      	negs	r2, r2
 8000e84:	1aa4      	subs	r4, r4, r2
 8000e86:	0223      	lsls	r3, r4, #8
 8000e88:	d4c8      	bmi.n	8000e1c <__aeabi_dsub+0x5f4>
 8000e8a:	0763      	lsls	r3, r4, #29
 8000e8c:	08ff      	lsrs	r7, r7, #3
 8000e8e:	431f      	orrs	r7, r3
 8000e90:	4666      	mov	r6, ip
 8000e92:	2301      	movs	r3, #1
 8000e94:	08e5      	lsrs	r5, r4, #3
 8000e96:	e71f      	b.n	8000cd8 <__aeabi_dsub+0x4b0>
 8000e98:	001d      	movs	r5, r3
 8000e9a:	2400      	movs	r4, #0
 8000e9c:	2700      	movs	r7, #0
 8000e9e:	e657      	b.n	8000b50 <__aeabi_dsub+0x328>
 8000ea0:	465c      	mov	r4, fp
 8000ea2:	08d0      	lsrs	r0, r2, #3
 8000ea4:	e66a      	b.n	8000b7c <__aeabi_dsub+0x354>
 8000ea6:	2b00      	cmp	r3, #0
 8000ea8:	d100      	bne.n	8000eac <__aeabi_dsub+0x684>
 8000eaa:	e737      	b.n	8000d1c <__aeabi_dsub+0x4f4>
 8000eac:	4653      	mov	r3, sl
 8000eae:	08c0      	lsrs	r0, r0, #3
 8000eb0:	0767      	lsls	r7, r4, #29
 8000eb2:	4307      	orrs	r7, r0
 8000eb4:	08e5      	lsrs	r5, r4, #3
 8000eb6:	2b00      	cmp	r3, #0
 8000eb8:	d100      	bne.n	8000ebc <__aeabi_dsub+0x694>
 8000eba:	e5b1      	b.n	8000a20 <__aeabi_dsub+0x1f8>
 8000ebc:	2380      	movs	r3, #128	@ 0x80
 8000ebe:	031b      	lsls	r3, r3, #12
 8000ec0:	421d      	tst	r5, r3
 8000ec2:	d008      	beq.n	8000ed6 <__aeabi_dsub+0x6ae>
 8000ec4:	4659      	mov	r1, fp
 8000ec6:	08c8      	lsrs	r0, r1, #3
 8000ec8:	4218      	tst	r0, r3
 8000eca:	d104      	bne.n	8000ed6 <__aeabi_dsub+0x6ae>
 8000ecc:	08d2      	lsrs	r2, r2, #3
 8000ece:	0749      	lsls	r1, r1, #29
 8000ed0:	430a      	orrs	r2, r1
 8000ed2:	0017      	movs	r7, r2
 8000ed4:	0005      	movs	r5, r0
 8000ed6:	0f7b      	lsrs	r3, r7, #29
 8000ed8:	00ff      	lsls	r7, r7, #3
 8000eda:	08ff      	lsrs	r7, r7, #3
 8000edc:	075b      	lsls	r3, r3, #29
 8000ede:	431f      	orrs	r7, r3
 8000ee0:	e59e      	b.n	8000a20 <__aeabi_dsub+0x1f8>
 8000ee2:	08c0      	lsrs	r0, r0, #3
 8000ee4:	0763      	lsls	r3, r4, #29
 8000ee6:	4318      	orrs	r0, r3
 8000ee8:	08e5      	lsrs	r5, r4, #3
 8000eea:	2900      	cmp	r1, #0
 8000eec:	d053      	beq.n	8000f96 <__aeabi_dsub+0x76e>
 8000eee:	2380      	movs	r3, #128	@ 0x80
 8000ef0:	031b      	lsls	r3, r3, #12
 8000ef2:	421d      	tst	r5, r3
 8000ef4:	d00a      	beq.n	8000f0c <__aeabi_dsub+0x6e4>
 8000ef6:	4659      	mov	r1, fp
 8000ef8:	08cc      	lsrs	r4, r1, #3
 8000efa:	421c      	tst	r4, r3
 8000efc:	d106      	bne.n	8000f0c <__aeabi_dsub+0x6e4>
 8000efe:	2601      	movs	r6, #1
 8000f00:	4663      	mov	r3, ip
 8000f02:	0025      	movs	r5, r4
 8000f04:	08d0      	lsrs	r0, r2, #3
 8000f06:	0749      	lsls	r1, r1, #29
 8000f08:	4308      	orrs	r0, r1
 8000f0a:	401e      	ands	r6, r3
 8000f0c:	0f47      	lsrs	r7, r0, #29
 8000f0e:	00c0      	lsls	r0, r0, #3
 8000f10:	08c0      	lsrs	r0, r0, #3
 8000f12:	077f      	lsls	r7, r7, #29
 8000f14:	4307      	orrs	r7, r0
 8000f16:	e583      	b.n	8000a20 <__aeabi_dsub+0x1f8>
 8000f18:	1883      	adds	r3, r0, r2
 8000f1a:	4293      	cmp	r3, r2
 8000f1c:	4192      	sbcs	r2, r2
 8000f1e:	445c      	add	r4, fp
 8000f20:	4252      	negs	r2, r2
 8000f22:	18a5      	adds	r5, r4, r2
 8000f24:	022a      	lsls	r2, r5, #8
 8000f26:	d500      	bpl.n	8000f2a <__aeabi_dsub+0x702>
 8000f28:	e724      	b.n	8000d74 <__aeabi_dsub+0x54c>
 8000f2a:	076f      	lsls	r7, r5, #29
 8000f2c:	08db      	lsrs	r3, r3, #3
 8000f2e:	431f      	orrs	r7, r3
 8000f30:	08ed      	lsrs	r5, r5, #3
 8000f32:	2301      	movs	r3, #1
 8000f34:	e6d0      	b.n	8000cd8 <__aeabi_dsub+0x4b0>
 8000f36:	46c0      	nop			@ (mov r8, r8)
 8000f38:	000007ff 	.word	0x000007ff
 8000f3c:	000007fe 	.word	0x000007fe
 8000f40:	ff7fffff 	.word	0xff7fffff
 8000f44:	465b      	mov	r3, fp
 8000f46:	08d2      	lsrs	r2, r2, #3
 8000f48:	075f      	lsls	r7, r3, #29
 8000f4a:	4666      	mov	r6, ip
 8000f4c:	4317      	orrs	r7, r2
 8000f4e:	08dd      	lsrs	r5, r3, #3
 8000f50:	e566      	b.n	8000a20 <__aeabi_dsub+0x1f8>
 8000f52:	0025      	movs	r5, r4
 8000f54:	3b20      	subs	r3, #32
 8000f56:	40dd      	lsrs	r5, r3
 8000f58:	4663      	mov	r3, ip
 8000f5a:	2b20      	cmp	r3, #32
 8000f5c:	d005      	beq.n	8000f6a <__aeabi_dsub+0x742>
 8000f5e:	2340      	movs	r3, #64	@ 0x40
 8000f60:	4661      	mov	r1, ip
 8000f62:	1a5b      	subs	r3, r3, r1
 8000f64:	409c      	lsls	r4, r3
 8000f66:	4320      	orrs	r0, r4
 8000f68:	4680      	mov	r8, r0
 8000f6a:	4647      	mov	r7, r8
 8000f6c:	1e7b      	subs	r3, r7, #1
 8000f6e:	419f      	sbcs	r7, r3
 8000f70:	432f      	orrs	r7, r5
 8000f72:	e5a0      	b.n	8000ab6 <__aeabi_dsub+0x28e>
 8000f74:	2120      	movs	r1, #32
 8000f76:	2700      	movs	r7, #0
 8000f78:	1a09      	subs	r1, r1, r0
 8000f7a:	e4d2      	b.n	8000922 <__aeabi_dsub+0xfa>
 8000f7c:	2f00      	cmp	r7, #0
 8000f7e:	d100      	bne.n	8000f82 <__aeabi_dsub+0x75a>
 8000f80:	e713      	b.n	8000daa <__aeabi_dsub+0x582>
 8000f82:	465c      	mov	r4, fp
 8000f84:	0017      	movs	r7, r2
 8000f86:	2500      	movs	r5, #0
 8000f88:	e5f6      	b.n	8000b78 <__aeabi_dsub+0x350>
 8000f8a:	08d7      	lsrs	r7, r2, #3
 8000f8c:	0749      	lsls	r1, r1, #29
 8000f8e:	2302      	movs	r3, #2
 8000f90:	430f      	orrs	r7, r1
 8000f92:	092d      	lsrs	r5, r5, #4
 8000f94:	e6a0      	b.n	8000cd8 <__aeabi_dsub+0x4b0>
 8000f96:	0007      	movs	r7, r0
 8000f98:	e542      	b.n	8000a20 <__aeabi_dsub+0x1f8>
 8000f9a:	465b      	mov	r3, fp
 8000f9c:	2601      	movs	r6, #1
 8000f9e:	075f      	lsls	r7, r3, #29
 8000fa0:	08dd      	lsrs	r5, r3, #3
 8000fa2:	4663      	mov	r3, ip
 8000fa4:	08d2      	lsrs	r2, r2, #3
 8000fa6:	4317      	orrs	r7, r2
 8000fa8:	401e      	ands	r6, r3
 8000faa:	e539      	b.n	8000a20 <__aeabi_dsub+0x1f8>
 8000fac:	465b      	mov	r3, fp
 8000fae:	08d2      	lsrs	r2, r2, #3
 8000fb0:	075f      	lsls	r7, r3, #29
 8000fb2:	4317      	orrs	r7, r2
 8000fb4:	08dd      	lsrs	r5, r3, #3
 8000fb6:	e533      	b.n	8000a20 <__aeabi_dsub+0x1f8>
 8000fb8:	4a1e      	ldr	r2, [pc, #120]	@ (8001034 <__aeabi_dsub+0x80c>)
 8000fba:	08db      	lsrs	r3, r3, #3
 8000fbc:	4022      	ands	r2, r4
 8000fbe:	0757      	lsls	r7, r2, #29
 8000fc0:	0252      	lsls	r2, r2, #9
 8000fc2:	2501      	movs	r5, #1
 8000fc4:	431f      	orrs	r7, r3
 8000fc6:	0b14      	lsrs	r4, r2, #12
 8000fc8:	e5c2      	b.n	8000b50 <__aeabi_dsub+0x328>
 8000fca:	000e      	movs	r6, r1
 8000fcc:	2001      	movs	r0, #1
 8000fce:	e65f      	b.n	8000c90 <__aeabi_dsub+0x468>
 8000fd0:	2b00      	cmp	r3, #0
 8000fd2:	d00d      	beq.n	8000ff0 <__aeabi_dsub+0x7c8>
 8000fd4:	464b      	mov	r3, r9
 8000fd6:	1b5b      	subs	r3, r3, r5
 8000fd8:	469c      	mov	ip, r3
 8000fda:	2d00      	cmp	r5, #0
 8000fdc:	d100      	bne.n	8000fe0 <__aeabi_dsub+0x7b8>
 8000fde:	e548      	b.n	8000a72 <__aeabi_dsub+0x24a>
 8000fe0:	2701      	movs	r7, #1
 8000fe2:	2b38      	cmp	r3, #56	@ 0x38
 8000fe4:	dd00      	ble.n	8000fe8 <__aeabi_dsub+0x7c0>
 8000fe6:	e566      	b.n	8000ab6 <__aeabi_dsub+0x28e>
 8000fe8:	2380      	movs	r3, #128	@ 0x80
 8000fea:	041b      	lsls	r3, r3, #16
 8000fec:	431c      	orrs	r4, r3
 8000fee:	e550      	b.n	8000a92 <__aeabi_dsub+0x26a>
 8000ff0:	1c6b      	adds	r3, r5, #1
 8000ff2:	4d11      	ldr	r5, [pc, #68]	@ (8001038 <__aeabi_dsub+0x810>)
 8000ff4:	422b      	tst	r3, r5
 8000ff6:	d000      	beq.n	8000ffa <__aeabi_dsub+0x7d2>
 8000ff8:	e673      	b.n	8000ce2 <__aeabi_dsub+0x4ba>
 8000ffa:	4659      	mov	r1, fp
 8000ffc:	0023      	movs	r3, r4
 8000ffe:	4311      	orrs	r1, r2
 8001000:	468a      	mov	sl, r1
 8001002:	4303      	orrs	r3, r0
 8001004:	e600      	b.n	8000c08 <__aeabi_dsub+0x3e0>
 8001006:	0767      	lsls	r7, r4, #29
 8001008:	08c0      	lsrs	r0, r0, #3
 800100a:	2300      	movs	r3, #0
 800100c:	4307      	orrs	r7, r0
 800100e:	08e5      	lsrs	r5, r4, #3
 8001010:	e662      	b.n	8000cd8 <__aeabi_dsub+0x4b0>
 8001012:	0764      	lsls	r4, r4, #29
 8001014:	08ff      	lsrs	r7, r7, #3
 8001016:	4327      	orrs	r7, r4
 8001018:	0905      	lsrs	r5, r0, #4
 800101a:	e65d      	b.n	8000cd8 <__aeabi_dsub+0x4b0>
 800101c:	08d2      	lsrs	r2, r2, #3
 800101e:	0749      	lsls	r1, r1, #29
 8001020:	4311      	orrs	r1, r2
 8001022:	000f      	movs	r7, r1
 8001024:	2302      	movs	r3, #2
 8001026:	092d      	lsrs	r5, r5, #4
 8001028:	e656      	b.n	8000cd8 <__aeabi_dsub+0x4b0>
 800102a:	0007      	movs	r7, r0
 800102c:	e5a4      	b.n	8000b78 <__aeabi_dsub+0x350>
 800102e:	0038      	movs	r0, r7
 8001030:	e48f      	b.n	8000952 <__aeabi_dsub+0x12a>
 8001032:	46c0      	nop			@ (mov r8, r8)
 8001034:	ff7fffff 	.word	0xff7fffff
 8001038:	000007fe 	.word	0x000007fe

0800103c <__aeabi_d2iz>:
 800103c:	000b      	movs	r3, r1
 800103e:	0002      	movs	r2, r0
 8001040:	b570      	push	{r4, r5, r6, lr}
 8001042:	4d16      	ldr	r5, [pc, #88]	@ (800109c <__aeabi_d2iz+0x60>)
 8001044:	030c      	lsls	r4, r1, #12
 8001046:	b082      	sub	sp, #8
 8001048:	0049      	lsls	r1, r1, #1
 800104a:	2000      	movs	r0, #0
 800104c:	9200      	str	r2, [sp, #0]
 800104e:	9301      	str	r3, [sp, #4]
 8001050:	0b24      	lsrs	r4, r4, #12
 8001052:	0d49      	lsrs	r1, r1, #21
 8001054:	0fde      	lsrs	r6, r3, #31
 8001056:	42a9      	cmp	r1, r5
 8001058:	dd04      	ble.n	8001064 <__aeabi_d2iz+0x28>
 800105a:	4811      	ldr	r0, [pc, #68]	@ (80010a0 <__aeabi_d2iz+0x64>)
 800105c:	4281      	cmp	r1, r0
 800105e:	dd03      	ble.n	8001068 <__aeabi_d2iz+0x2c>
 8001060:	4b10      	ldr	r3, [pc, #64]	@ (80010a4 <__aeabi_d2iz+0x68>)
 8001062:	18f0      	adds	r0, r6, r3
 8001064:	b002      	add	sp, #8
 8001066:	bd70      	pop	{r4, r5, r6, pc}
 8001068:	2080      	movs	r0, #128	@ 0x80
 800106a:	0340      	lsls	r0, r0, #13
 800106c:	4320      	orrs	r0, r4
 800106e:	4c0e      	ldr	r4, [pc, #56]	@ (80010a8 <__aeabi_d2iz+0x6c>)
 8001070:	1a64      	subs	r4, r4, r1
 8001072:	2c1f      	cmp	r4, #31
 8001074:	dd08      	ble.n	8001088 <__aeabi_d2iz+0x4c>
 8001076:	4b0d      	ldr	r3, [pc, #52]	@ (80010ac <__aeabi_d2iz+0x70>)
 8001078:	1a5b      	subs	r3, r3, r1
 800107a:	40d8      	lsrs	r0, r3
 800107c:	0003      	movs	r3, r0
 800107e:	4258      	negs	r0, r3
 8001080:	2e00      	cmp	r6, #0
 8001082:	d1ef      	bne.n	8001064 <__aeabi_d2iz+0x28>
 8001084:	0018      	movs	r0, r3
 8001086:	e7ed      	b.n	8001064 <__aeabi_d2iz+0x28>
 8001088:	4b09      	ldr	r3, [pc, #36]	@ (80010b0 <__aeabi_d2iz+0x74>)
 800108a:	9a00      	ldr	r2, [sp, #0]
 800108c:	469c      	mov	ip, r3
 800108e:	0003      	movs	r3, r0
 8001090:	4461      	add	r1, ip
 8001092:	408b      	lsls	r3, r1
 8001094:	40e2      	lsrs	r2, r4
 8001096:	4313      	orrs	r3, r2
 8001098:	e7f1      	b.n	800107e <__aeabi_d2iz+0x42>
 800109a:	46c0      	nop			@ (mov r8, r8)
 800109c:	000003fe 	.word	0x000003fe
 80010a0:	0000041d 	.word	0x0000041d
 80010a4:	7fffffff 	.word	0x7fffffff
 80010a8:	00000433 	.word	0x00000433
 80010ac:	00000413 	.word	0x00000413
 80010b0:	fffffbed 	.word	0xfffffbed

080010b4 <__aeabi_ui2d>:
 80010b4:	b510      	push	{r4, lr}
 80010b6:	1e04      	subs	r4, r0, #0
 80010b8:	d010      	beq.n	80010dc <__aeabi_ui2d+0x28>
 80010ba:	f000 f85d 	bl	8001178 <__clzsi2>
 80010be:	4b0e      	ldr	r3, [pc, #56]	@ (80010f8 <__aeabi_ui2d+0x44>)
 80010c0:	1a1b      	subs	r3, r3, r0
 80010c2:	055b      	lsls	r3, r3, #21
 80010c4:	0d5b      	lsrs	r3, r3, #21
 80010c6:	280a      	cmp	r0, #10
 80010c8:	dc0f      	bgt.n	80010ea <__aeabi_ui2d+0x36>
 80010ca:	220b      	movs	r2, #11
 80010cc:	0021      	movs	r1, r4
 80010ce:	1a12      	subs	r2, r2, r0
 80010d0:	40d1      	lsrs	r1, r2
 80010d2:	3015      	adds	r0, #21
 80010d4:	030a      	lsls	r2, r1, #12
 80010d6:	4084      	lsls	r4, r0
 80010d8:	0b12      	lsrs	r2, r2, #12
 80010da:	e001      	b.n	80010e0 <__aeabi_ui2d+0x2c>
 80010dc:	2300      	movs	r3, #0
 80010de:	2200      	movs	r2, #0
 80010e0:	051b      	lsls	r3, r3, #20
 80010e2:	4313      	orrs	r3, r2
 80010e4:	0020      	movs	r0, r4
 80010e6:	0019      	movs	r1, r3
 80010e8:	bd10      	pop	{r4, pc}
 80010ea:	0022      	movs	r2, r4
 80010ec:	380b      	subs	r0, #11
 80010ee:	4082      	lsls	r2, r0
 80010f0:	0312      	lsls	r2, r2, #12
 80010f2:	2400      	movs	r4, #0
 80010f4:	0b12      	lsrs	r2, r2, #12
 80010f6:	e7f3      	b.n	80010e0 <__aeabi_ui2d+0x2c>
 80010f8:	0000041e 	.word	0x0000041e

080010fc <__aeabi_cdrcmple>:
 80010fc:	4684      	mov	ip, r0
 80010fe:	0010      	movs	r0, r2
 8001100:	4662      	mov	r2, ip
 8001102:	468c      	mov	ip, r1
 8001104:	0019      	movs	r1, r3
 8001106:	4663      	mov	r3, ip
 8001108:	e000      	b.n	800110c <__aeabi_cdcmpeq>
 800110a:	46c0      	nop			@ (mov r8, r8)

0800110c <__aeabi_cdcmpeq>:
 800110c:	b51f      	push	{r0, r1, r2, r3, r4, lr}
 800110e:	f000 f905 	bl	800131c <__ledf2>
 8001112:	2800      	cmp	r0, #0
 8001114:	d401      	bmi.n	800111a <__aeabi_cdcmpeq+0xe>
 8001116:	2100      	movs	r1, #0
 8001118:	42c8      	cmn	r0, r1
 800111a:	bd1f      	pop	{r0, r1, r2, r3, r4, pc}

0800111c <__aeabi_dcmpeq>:
 800111c:	b510      	push	{r4, lr}
 800111e:	f000 f849 	bl	80011b4 <__eqdf2>
 8001122:	4240      	negs	r0, r0
 8001124:	3001      	adds	r0, #1
 8001126:	bd10      	pop	{r4, pc}

08001128 <__aeabi_dcmplt>:
 8001128:	b510      	push	{r4, lr}
 800112a:	f000 f8f7 	bl	800131c <__ledf2>
 800112e:	2800      	cmp	r0, #0
 8001130:	db01      	blt.n	8001136 <__aeabi_dcmplt+0xe>
 8001132:	2000      	movs	r0, #0
 8001134:	bd10      	pop	{r4, pc}
 8001136:	2001      	movs	r0, #1
 8001138:	bd10      	pop	{r4, pc}
 800113a:	46c0      	nop			@ (mov r8, r8)

0800113c <__aeabi_dcmple>:
 800113c:	b510      	push	{r4, lr}
 800113e:	f000 f8ed 	bl	800131c <__ledf2>
 8001142:	2800      	cmp	r0, #0
 8001144:	dd01      	ble.n	800114a <__aeabi_dcmple+0xe>
 8001146:	2000      	movs	r0, #0
 8001148:	bd10      	pop	{r4, pc}
 800114a:	2001      	movs	r0, #1
 800114c:	bd10      	pop	{r4, pc}
 800114e:	46c0      	nop			@ (mov r8, r8)

08001150 <__aeabi_dcmpgt>:
 8001150:	b510      	push	{r4, lr}
 8001152:	f000 f873 	bl	800123c <__gedf2>
 8001156:	2800      	cmp	r0, #0
 8001158:	dc01      	bgt.n	800115e <__aeabi_dcmpgt+0xe>
 800115a:	2000      	movs	r0, #0
 800115c:	bd10      	pop	{r4, pc}
 800115e:	2001      	movs	r0, #1
 8001160:	bd10      	pop	{r4, pc}
 8001162:	46c0      	nop			@ (mov r8, r8)

08001164 <__aeabi_dcmpge>:
 8001164:	b510      	push	{r4, lr}
 8001166:	f000 f869 	bl	800123c <__gedf2>
 800116a:	2800      	cmp	r0, #0
 800116c:	da01      	bge.n	8001172 <__aeabi_dcmpge+0xe>
 800116e:	2000      	movs	r0, #0
 8001170:	bd10      	pop	{r4, pc}
 8001172:	2001      	movs	r0, #1
 8001174:	bd10      	pop	{r4, pc}
 8001176:	46c0      	nop			@ (mov r8, r8)

08001178 <__clzsi2>:
 8001178:	211c      	movs	r1, #28
 800117a:	2301      	movs	r3, #1
 800117c:	041b      	lsls	r3, r3, #16
 800117e:	4298      	cmp	r0, r3
 8001180:	d301      	bcc.n	8001186 <__clzsi2+0xe>
 8001182:	0c00      	lsrs	r0, r0, #16
 8001184:	3910      	subs	r1, #16
 8001186:	0a1b      	lsrs	r3, r3, #8
 8001188:	4298      	cmp	r0, r3
 800118a:	d301      	bcc.n	8001190 <__clzsi2+0x18>
 800118c:	0a00      	lsrs	r0, r0, #8
 800118e:	3908      	subs	r1, #8
 8001190:	091b      	lsrs	r3, r3, #4
 8001192:	4298      	cmp	r0, r3
 8001194:	d301      	bcc.n	800119a <__clzsi2+0x22>
 8001196:	0900      	lsrs	r0, r0, #4
 8001198:	3904      	subs	r1, #4
 800119a:	a202      	add	r2, pc, #8	@ (adr r2, 80011a4 <__clzsi2+0x2c>)
 800119c:	5c10      	ldrb	r0, [r2, r0]
 800119e:	1840      	adds	r0, r0, r1
 80011a0:	4770      	bx	lr
 80011a2:	46c0      	nop			@ (mov r8, r8)
 80011a4:	02020304 	.word	0x02020304
 80011a8:	01010101 	.word	0x01010101
	...

080011b4 <__eqdf2>:
 80011b4:	b5f0      	push	{r4, r5, r6, r7, lr}
 80011b6:	4657      	mov	r7, sl
 80011b8:	46de      	mov	lr, fp
 80011ba:	464e      	mov	r6, r9
 80011bc:	4645      	mov	r5, r8
 80011be:	b5e0      	push	{r5, r6, r7, lr}
 80011c0:	000d      	movs	r5, r1
 80011c2:	0004      	movs	r4, r0
 80011c4:	0fe8      	lsrs	r0, r5, #31
 80011c6:	4683      	mov	fp, r0
 80011c8:	0309      	lsls	r1, r1, #12
 80011ca:	0fd8      	lsrs	r0, r3, #31
 80011cc:	0b09      	lsrs	r1, r1, #12
 80011ce:	4682      	mov	sl, r0
 80011d0:	4819      	ldr	r0, [pc, #100]	@ (8001238 <__eqdf2+0x84>)
 80011d2:	468c      	mov	ip, r1
 80011d4:	031f      	lsls	r7, r3, #12
 80011d6:	0069      	lsls	r1, r5, #1
 80011d8:	005e      	lsls	r6, r3, #1
 80011da:	0d49      	lsrs	r1, r1, #21
 80011dc:	0b3f      	lsrs	r7, r7, #12
 80011de:	0d76      	lsrs	r6, r6, #21
 80011e0:	4281      	cmp	r1, r0
 80011e2:	d018      	beq.n	8001216 <__eqdf2+0x62>
 80011e4:	4286      	cmp	r6, r0
 80011e6:	d00f      	beq.n	8001208 <__eqdf2+0x54>
 80011e8:	2001      	movs	r0, #1
 80011ea:	42b1      	cmp	r1, r6
 80011ec:	d10d      	bne.n	800120a <__eqdf2+0x56>
 80011ee:	45bc      	cmp	ip, r7
 80011f0:	d10b      	bne.n	800120a <__eqdf2+0x56>
 80011f2:	4294      	cmp	r4, r2
 80011f4:	d109      	bne.n	800120a <__eqdf2+0x56>
 80011f6:	45d3      	cmp	fp, sl
 80011f8:	d01c      	beq.n	8001234 <__eqdf2+0x80>
 80011fa:	2900      	cmp	r1, #0
 80011fc:	d105      	bne.n	800120a <__eqdf2+0x56>
 80011fe:	4660      	mov	r0, ip
 8001200:	4320      	orrs	r0, r4
 8001202:	1e43      	subs	r3, r0, #1
 8001204:	4198      	sbcs	r0, r3
 8001206:	e000      	b.n	800120a <__eqdf2+0x56>
 8001208:	2001      	movs	r0, #1
 800120a:	bcf0      	pop	{r4, r5, r6, r7}
 800120c:	46bb      	mov	fp, r7
 800120e:	46b2      	mov	sl, r6
 8001210:	46a9      	mov	r9, r5
 8001212:	46a0      	mov	r8, r4
 8001214:	bdf0      	pop	{r4, r5, r6, r7, pc}
 8001216:	2001      	movs	r0, #1
 8001218:	428e      	cmp	r6, r1
 800121a:	d1f6      	bne.n	800120a <__eqdf2+0x56>
 800121c:	4661      	mov	r1, ip
 800121e:	4339      	orrs	r1, r7
 8001220:	000f      	movs	r7, r1
 8001222:	4317      	orrs	r7, r2
 8001224:	4327      	orrs	r7, r4
 8001226:	d1f0      	bne.n	800120a <__eqdf2+0x56>
 8001228:	465b      	mov	r3, fp
 800122a:	4652      	mov	r2, sl
 800122c:	1a98      	subs	r0, r3, r2
 800122e:	1e43      	subs	r3, r0, #1
 8001230:	4198      	sbcs	r0, r3
 8001232:	e7ea      	b.n	800120a <__eqdf2+0x56>
 8001234:	2000      	movs	r0, #0
 8001236:	e7e8      	b.n	800120a <__eqdf2+0x56>
 8001238:	000007ff 	.word	0x000007ff

0800123c <__gedf2>:
 800123c:	b5f0      	push	{r4, r5, r6, r7, lr}
 800123e:	4657      	mov	r7, sl
 8001240:	464e      	mov	r6, r9
 8001242:	4645      	mov	r5, r8
 8001244:	46de      	mov	lr, fp
 8001246:	b5e0      	push	{r5, r6, r7, lr}
 8001248:	000d      	movs	r5, r1
 800124a:	030e      	lsls	r6, r1, #12
 800124c:	0049      	lsls	r1, r1, #1
 800124e:	0d49      	lsrs	r1, r1, #21
 8001250:	468a      	mov	sl, r1
 8001252:	0fdf      	lsrs	r7, r3, #31
 8001254:	0fe9      	lsrs	r1, r5, #31
 8001256:	46bc      	mov	ip, r7
 8001258:	b083      	sub	sp, #12
 800125a:	4f2f      	ldr	r7, [pc, #188]	@ (8001318 <__gedf2+0xdc>)
 800125c:	0004      	movs	r4, r0
 800125e:	4680      	mov	r8, r0
 8001260:	9101      	str	r1, [sp, #4]
 8001262:	0058      	lsls	r0, r3, #1
 8001264:	0319      	lsls	r1, r3, #12
 8001266:	4691      	mov	r9, r2
 8001268:	0b36      	lsrs	r6, r6, #12
 800126a:	0b09      	lsrs	r1, r1, #12
 800126c:	0d40      	lsrs	r0, r0, #21
 800126e:	45ba      	cmp	sl, r7
 8001270:	d01d      	beq.n	80012ae <__gedf2+0x72>
 8001272:	42b8      	cmp	r0, r7
 8001274:	d00d      	beq.n	8001292 <__gedf2+0x56>
 8001276:	4657      	mov	r7, sl
 8001278:	2f00      	cmp	r7, #0
 800127a:	d12a      	bne.n	80012d2 <__gedf2+0x96>
 800127c:	4334      	orrs	r4, r6
 800127e:	2800      	cmp	r0, #0
 8001280:	d124      	bne.n	80012cc <__gedf2+0x90>
 8001282:	430a      	orrs	r2, r1
 8001284:	d036      	beq.n	80012f4 <__gedf2+0xb8>
 8001286:	2c00      	cmp	r4, #0
 8001288:	d141      	bne.n	800130e <__gedf2+0xd2>
 800128a:	4663      	mov	r3, ip
 800128c:	0058      	lsls	r0, r3, #1
 800128e:	3801      	subs	r0, #1
 8001290:	e015      	b.n	80012be <__gedf2+0x82>
 8001292:	4311      	orrs	r1, r2
 8001294:	d138      	bne.n	8001308 <__gedf2+0xcc>
 8001296:	4653      	mov	r3, sl
 8001298:	2b00      	cmp	r3, #0
 800129a:	d101      	bne.n	80012a0 <__gedf2+0x64>
 800129c:	4326      	orrs	r6, r4
 800129e:	d0f4      	beq.n	800128a <__gedf2+0x4e>
 80012a0:	9b01      	ldr	r3, [sp, #4]
 80012a2:	4563      	cmp	r3, ip
 80012a4:	d107      	bne.n	80012b6 <__gedf2+0x7a>
 80012a6:	9b01      	ldr	r3, [sp, #4]
 80012a8:	0058      	lsls	r0, r3, #1
 80012aa:	3801      	subs	r0, #1
 80012ac:	e007      	b.n	80012be <__gedf2+0x82>
 80012ae:	4326      	orrs	r6, r4
 80012b0:	d12a      	bne.n	8001308 <__gedf2+0xcc>
 80012b2:	4550      	cmp	r0, sl
 80012b4:	d021      	beq.n	80012fa <__gedf2+0xbe>
 80012b6:	2001      	movs	r0, #1
 80012b8:	9b01      	ldr	r3, [sp, #4]
 80012ba:	425f      	negs	r7, r3
 80012bc:	4338      	orrs	r0, r7
 80012be:	b003      	add	sp, #12
 80012c0:	bcf0      	pop	{r4, r5, r6, r7}
 80012c2:	46bb      	mov	fp, r7
 80012c4:	46b2      	mov	sl, r6
 80012c6:	46a9      	mov	r9, r5
 80012c8:	46a0      	mov	r8, r4
 80012ca:	bdf0      	pop	{r4, r5, r6, r7, pc}
 80012cc:	2c00      	cmp	r4, #0
 80012ce:	d0dc      	beq.n	800128a <__gedf2+0x4e>
 80012d0:	e7e6      	b.n	80012a0 <__gedf2+0x64>
 80012d2:	2800      	cmp	r0, #0
 80012d4:	d0ef      	beq.n	80012b6 <__gedf2+0x7a>
 80012d6:	9b01      	ldr	r3, [sp, #4]
 80012d8:	4563      	cmp	r3, ip
 80012da:	d1ec      	bne.n	80012b6 <__gedf2+0x7a>
 80012dc:	4582      	cmp	sl, r0
 80012de:	dcea      	bgt.n	80012b6 <__gedf2+0x7a>
 80012e0:	dbe1      	blt.n	80012a6 <__gedf2+0x6a>
 80012e2:	428e      	cmp	r6, r1
 80012e4:	d8e7      	bhi.n	80012b6 <__gedf2+0x7a>
 80012e6:	d1de      	bne.n	80012a6 <__gedf2+0x6a>
 80012e8:	45c8      	cmp	r8, r9
 80012ea:	d8e4      	bhi.n	80012b6 <__gedf2+0x7a>
 80012ec:	2000      	movs	r0, #0
 80012ee:	45c8      	cmp	r8, r9
 80012f0:	d2e5      	bcs.n	80012be <__gedf2+0x82>
 80012f2:	e7d8      	b.n	80012a6 <__gedf2+0x6a>
 80012f4:	2c00      	cmp	r4, #0
 80012f6:	d0e2      	beq.n	80012be <__gedf2+0x82>
 80012f8:	e7dd      	b.n	80012b6 <__gedf2+0x7a>
 80012fa:	4311      	orrs	r1, r2
 80012fc:	d104      	bne.n	8001308 <__gedf2+0xcc>
 80012fe:	9b01      	ldr	r3, [sp, #4]
 8001300:	4563      	cmp	r3, ip
 8001302:	d1d8      	bne.n	80012b6 <__gedf2+0x7a>
 8001304:	2000      	movs	r0, #0
 8001306:	e7da      	b.n	80012be <__gedf2+0x82>
 8001308:	2002      	movs	r0, #2
 800130a:	4240      	negs	r0, r0
 800130c:	e7d7      	b.n	80012be <__gedf2+0x82>
 800130e:	9b01      	ldr	r3, [sp, #4]
 8001310:	4563      	cmp	r3, ip
 8001312:	d0e6      	beq.n	80012e2 <__gedf2+0xa6>
 8001314:	e7cf      	b.n	80012b6 <__gedf2+0x7a>
 8001316:	46c0      	nop			@ (mov r8, r8)
 8001318:	000007ff 	.word	0x000007ff

0800131c <__ledf2>:
 800131c:	b5f0      	push	{r4, r5, r6, r7, lr}
 800131e:	4657      	mov	r7, sl
 8001320:	464e      	mov	r6, r9
 8001322:	4645      	mov	r5, r8
 8001324:	46de      	mov	lr, fp
 8001326:	b5e0      	push	{r5, r6, r7, lr}
 8001328:	000d      	movs	r5, r1
 800132a:	030e      	lsls	r6, r1, #12
 800132c:	0049      	lsls	r1, r1, #1
 800132e:	0d49      	lsrs	r1, r1, #21
 8001330:	468a      	mov	sl, r1
 8001332:	0fdf      	lsrs	r7, r3, #31
 8001334:	0fe9      	lsrs	r1, r5, #31
 8001336:	46bc      	mov	ip, r7
 8001338:	b083      	sub	sp, #12
 800133a:	4f2e      	ldr	r7, [pc, #184]	@ (80013f4 <__ledf2+0xd8>)
 800133c:	0004      	movs	r4, r0
 800133e:	4680      	mov	r8, r0
 8001340:	9101      	str	r1, [sp, #4]
 8001342:	0058      	lsls	r0, r3, #1
 8001344:	0319      	lsls	r1, r3, #12
 8001346:	4691      	mov	r9, r2
 8001348:	0b36      	lsrs	r6, r6, #12
 800134a:	0b09      	lsrs	r1, r1, #12
 800134c:	0d40      	lsrs	r0, r0, #21
 800134e:	45ba      	cmp	sl, r7
 8001350:	d01e      	beq.n	8001390 <__ledf2+0x74>
 8001352:	42b8      	cmp	r0, r7
 8001354:	d00d      	beq.n	8001372 <__ledf2+0x56>
 8001356:	4657      	mov	r7, sl
 8001358:	2f00      	cmp	r7, #0
 800135a:	d127      	bne.n	80013ac <__ledf2+0x90>
 800135c:	4334      	orrs	r4, r6
 800135e:	2800      	cmp	r0, #0
 8001360:	d133      	bne.n	80013ca <__ledf2+0xae>
 8001362:	430a      	orrs	r2, r1
 8001364:	d034      	beq.n	80013d0 <__ledf2+0xb4>
 8001366:	2c00      	cmp	r4, #0
 8001368:	d140      	bne.n	80013ec <__ledf2+0xd0>
 800136a:	4663      	mov	r3, ip
 800136c:	0058      	lsls	r0, r3, #1
 800136e:	3801      	subs	r0, #1
 8001370:	e015      	b.n	800139e <__ledf2+0x82>
 8001372:	4311      	orrs	r1, r2
 8001374:	d112      	bne.n	800139c <__ledf2+0x80>
 8001376:	4653      	mov	r3, sl
 8001378:	2b00      	cmp	r3, #0
 800137a:	d101      	bne.n	8001380 <__ledf2+0x64>
 800137c:	4326      	orrs	r6, r4
 800137e:	d0f4      	beq.n	800136a <__ledf2+0x4e>
 8001380:	9b01      	ldr	r3, [sp, #4]
 8001382:	4563      	cmp	r3, ip
 8001384:	d01d      	beq.n	80013c2 <__ledf2+0xa6>
 8001386:	2001      	movs	r0, #1
 8001388:	9b01      	ldr	r3, [sp, #4]
 800138a:	425f      	negs	r7, r3
 800138c:	4338      	orrs	r0, r7
 800138e:	e006      	b.n	800139e <__ledf2+0x82>
 8001390:	4326      	orrs	r6, r4
 8001392:	d103      	bne.n	800139c <__ledf2+0x80>
 8001394:	4550      	cmp	r0, sl
 8001396:	d1f6      	bne.n	8001386 <__ledf2+0x6a>
 8001398:	4311      	orrs	r1, r2
 800139a:	d01c      	beq.n	80013d6 <__ledf2+0xba>
 800139c:	2002      	movs	r0, #2
 800139e:	b003      	add	sp, #12
 80013a0:	bcf0      	pop	{r4, r5, r6, r7}
 80013a2:	46bb      	mov	fp, r7
 80013a4:	46b2      	mov	sl, r6
 80013a6:	46a9      	mov	r9, r5
 80013a8:	46a0      	mov	r8, r4
 80013aa:	bdf0      	pop	{r4, r5, r6, r7, pc}
 80013ac:	2800      	cmp	r0, #0
 80013ae:	d0ea      	beq.n	8001386 <__ledf2+0x6a>
 80013b0:	9b01      	ldr	r3, [sp, #4]
 80013b2:	4563      	cmp	r3, ip
 80013b4:	d1e7      	bne.n	8001386 <__ledf2+0x6a>
 80013b6:	4582      	cmp	sl, r0
 80013b8:	dce5      	bgt.n	8001386 <__ledf2+0x6a>
 80013ba:	db02      	blt.n	80013c2 <__ledf2+0xa6>
 80013bc:	428e      	cmp	r6, r1
 80013be:	d8e2      	bhi.n	8001386 <__ledf2+0x6a>
 80013c0:	d00e      	beq.n	80013e0 <__ledf2+0xc4>
 80013c2:	9b01      	ldr	r3, [sp, #4]
 80013c4:	0058      	lsls	r0, r3, #1
 80013c6:	3801      	subs	r0, #1
 80013c8:	e7e9      	b.n	800139e <__ledf2+0x82>
 80013ca:	2c00      	cmp	r4, #0
 80013cc:	d0cd      	beq.n	800136a <__ledf2+0x4e>
 80013ce:	e7d7      	b.n	8001380 <__ledf2+0x64>
 80013d0:	2c00      	cmp	r4, #0
 80013d2:	d0e4      	beq.n	800139e <__ledf2+0x82>
 80013d4:	e7d7      	b.n	8001386 <__ledf2+0x6a>
 80013d6:	9b01      	ldr	r3, [sp, #4]
 80013d8:	2000      	movs	r0, #0
 80013da:	4563      	cmp	r3, ip
 80013dc:	d0df      	beq.n	800139e <__ledf2+0x82>
 80013de:	e7d2      	b.n	8001386 <__ledf2+0x6a>
 80013e0:	45c8      	cmp	r8, r9
 80013e2:	d8d0      	bhi.n	8001386 <__ledf2+0x6a>
 80013e4:	2000      	movs	r0, #0
 80013e6:	45c8      	cmp	r8, r9
 80013e8:	d2d9      	bcs.n	800139e <__ledf2+0x82>
 80013ea:	e7ea      	b.n	80013c2 <__ledf2+0xa6>
 80013ec:	9b01      	ldr	r3, [sp, #4]
 80013ee:	4563      	cmp	r3, ip
 80013f0:	d0e4      	beq.n	80013bc <__ledf2+0xa0>
 80013f2:	e7c8      	b.n	8001386 <__ledf2+0x6a>
 80013f4:	000007ff 	.word	0x000007ff

080013f8 <AT24C08_Init>:
 80013f8:	4b01      	ldr	r3, [pc, #4]	@ (8001400 <AT24C08_Init+0x8>)
 80013fa:	6018      	str	r0, [r3, #0]
 80013fc:	4770      	bx	lr
 80013fe:	46c0      	nop			@ (mov r8, r8)
 8001400:	2000007c 	.word	0x2000007c

08001404 <AT24C08_Read>:
 8001404:	b5f0      	push	{r4, r5, r6, r7, lr}
 8001406:	001d      	movs	r5, r3
 8001408:	4b0e      	ldr	r3, [pc, #56]	@ (8001444 <AT24C08_Read+0x40>)
 800140a:	220f      	movs	r2, #15
 800140c:	781c      	ldrb	r4, [r3, #0]
 800140e:	230f      	movs	r3, #15
 8001410:	2701      	movs	r7, #1
 8001412:	b085      	sub	sp, #20
 8001414:	439c      	bics	r4, r3
 8001416:	0040      	lsls	r0, r0, #1
 8001418:	4e0b      	ldr	r6, [pc, #44]	@ (8001448 <AT24C08_Read+0x44>)
 800141a:	446a      	add	r2, sp
 800141c:	427f      	negs	r7, r7
 800141e:	4304      	orrs	r4, r0
 8001420:	7011      	strb	r1, [r2, #0]
 8001422:	b2e4      	uxtb	r4, r4
 8001424:	9700      	str	r7, [sp, #0]
 8001426:	0021      	movs	r1, r4
 8001428:	6830      	ldr	r0, [r6, #0]
 800142a:	3b0e      	subs	r3, #14
 800142c:	f000 fe5c 	bl	80020e8 <HAL_I2C_Master_Transmit>
 8001430:	9700      	str	r7, [sp, #0]
 8001432:	2301      	movs	r3, #1
 8001434:	002a      	movs	r2, r5
 8001436:	0021      	movs	r1, r4
 8001438:	6830      	ldr	r0, [r6, #0]
 800143a:	f000 fef9 	bl	8002230 <HAL_I2C_Master_Receive>
 800143e:	b005      	add	sp, #20
 8001440:	bdf0      	pop	{r4, r5, r6, r7, pc}
 8001442:	46c0      	nop			@ (mov r8, r8)
 8001444:	20000002 	.word	0x20000002
 8001448:	2000007c 	.word	0x2000007c

0800144c <AT24C08_ReadAddress>:
 800144c:	b5f7      	push	{r0, r1, r2, r4, r5, r6, r7, lr}
 800144e:	4b0a      	ldr	r3, [pc, #40]	@ (8001478 <AT24C08_ReadAddress+0x2c>)
 8001450:	000e      	movs	r6, r1
 8001452:	881f      	ldrh	r7, [r3, #0]
 8001454:	9201      	str	r2, [sp, #4]
 8001456:	0039      	movs	r1, r7
 8001458:	0004      	movs	r4, r0
 800145a:	f7fe fedb 	bl	8000214 <__aeabi_uidivmod>
 800145e:	0020      	movs	r0, r4
 8001460:	b2cd      	uxtb	r5, r1
 8001462:	0039      	movs	r1, r7
 8001464:	f7fe fe50 	bl	8000108 <__udivsi3>
 8001468:	0032      	movs	r2, r6
 800146a:	0029      	movs	r1, r5
 800146c:	9b01      	ldr	r3, [sp, #4]
 800146e:	b2c0      	uxtb	r0, r0
 8001470:	f7ff ffc8 	bl	8001404 <AT24C08_Read>
 8001474:	bdfe      	pop	{r1, r2, r3, r4, r5, r6, r7, pc}
 8001476:	46c0      	nop			@ (mov r8, r8)
 8001478:	20000000 	.word	0x20000000

0800147c <IRInterface_Init>:
 800147c:	b510      	push	{r4, lr}
 800147e:	f7ff ffbb 	bl	80013f8 <AT24C08_Init>
 8001482:	bd10      	pop	{r4, pc}

08001484 <IRInterface_Load>:
 8001484:	b5f8      	push	{r3, r4, r5, r6, r7, lr}
 8001486:	2500      	movs	r5, #0
 8001488:	4e0c      	ldr	r6, [pc, #48]	@ (80014bc <IRInterface_Load+0x38>)
 800148a:	2101      	movs	r1, #1
 800148c:	0032      	movs	r2, r6
 800148e:	0004      	movs	r4, r0
 8001490:	7035      	strb	r5, [r6, #0]
 8001492:	f7ff ffdb 	bl	800144c <AT24C08_ReadAddress>
 8001496:	7830      	ldrb	r0, [r6, #0]
 8001498:	f001 fe7a 	bl	8003190 <malloc>
 800149c:	4f08      	ldr	r7, [pc, #32]	@ (80014c0 <IRInterface_Load+0x3c>)
 800149e:	6038      	str	r0, [r7, #0]
 80014a0:	7833      	ldrb	r3, [r6, #0]
 80014a2:	3401      	adds	r4, #1
 80014a4:	b2a4      	uxth	r4, r4
 80014a6:	42ab      	cmp	r3, r5
 80014a8:	dc00      	bgt.n	80014ac <IRInterface_Load+0x28>
 80014aa:	bdf8      	pop	{r3, r4, r5, r6, r7, pc}
 80014ac:	683a      	ldr	r2, [r7, #0]
 80014ae:	2101      	movs	r1, #1
 80014b0:	1952      	adds	r2, r2, r5
 80014b2:	0020      	movs	r0, r4
 80014b4:	f7ff ffca 	bl	800144c <AT24C08_ReadAddress>
 80014b8:	3501      	adds	r5, #1
 80014ba:	e7f1      	b.n	80014a0 <IRInterface_Load+0x1c>
 80014bc:	20000084 	.word	0x20000084
 80014c0:	20000080 	.word	0x20000080

080014c4 <IRInterface_Send>:
 80014c4:	b5f0      	push	{r4, r5, r6, r7, lr}
 80014c6:	b089      	sub	sp, #36	@ 0x24
 80014c8:	af02      	add	r7, sp, #8
 80014ca:	6138      	str	r0, [r7, #16]
 80014cc:	0008      	movs	r0, r1
 80014ce:	f7ff ffd9 	bl	8001484 <IRInterface_Load>
 80014d2:	4669      	mov	r1, sp
 80014d4:	4b21      	ldr	r3, [pc, #132]	@ (800155c <IRInterface_Send+0x98>)
 80014d6:	2400      	movs	r4, #0
 80014d8:	781a      	ldrb	r2, [r3, #0]
 80014da:	2501      	movs	r5, #1
 80014dc:	0053      	lsls	r3, r2, #1
 80014de:	b2db      	uxtb	r3, r3
 80014e0:	617b      	str	r3, [r7, #20]
 80014e2:	3307      	adds	r3, #7
 80014e4:	08db      	lsrs	r3, r3, #3
 80014e6:	00db      	lsls	r3, r3, #3
 80014e8:	1acb      	subs	r3, r1, r3
 80014ea:	469d      	mov	sp, r3
 80014ec:	ab02      	add	r3, sp, #8
 80014ee:	60fb      	str	r3, [r7, #12]
 80014f0:	4b1b      	ldr	r3, [pc, #108]	@ (8001560 <IRInterface_Send+0x9c>)
 80014f2:	68fe      	ldr	r6, [r7, #12]
 80014f4:	681b      	ldr	r3, [r3, #0]
 80014f6:	60bb      	str	r3, [r7, #8]
 80014f8:	1e53      	subs	r3, r2, #1
 80014fa:	607b      	str	r3, [r7, #4]
 80014fc:	687b      	ldr	r3, [r7, #4]
 80014fe:	42a3      	cmp	r3, r4
 8001500:	dc14      	bgt.n	800152c <IRInterface_Send+0x68>
 8001502:	2280      	movs	r2, #128	@ 0x80
 8001504:	697b      	ldr	r3, [r7, #20]
 8001506:	0052      	lsls	r2, r2, #1
 8001508:	9200      	str	r2, [sp, #0]
 800150a:	9301      	str	r3, [sp, #4]
 800150c:	68fb      	ldr	r3, [r7, #12]
 800150e:	210c      	movs	r1, #12
 8001510:	6938      	ldr	r0, [r7, #16]
 8001512:	f001 fb3f 	bl	8002b94 <HAL_TIM_DMABurst_MultiWriteStart>
 8001516:	2100      	movs	r1, #0
 8001518:	6938      	ldr	r0, [r7, #16]
 800151a:	f001 fdef 	bl	80030fc <HAL_TIM_PWM_Start>
 800151e:	4b10      	ldr	r3, [pc, #64]	@ (8001560 <IRInterface_Send+0x9c>)
 8001520:	6818      	ldr	r0, [r3, #0]
 8001522:	f001 fe3f 	bl	80031a4 <free>
 8001526:	46bd      	mov	sp, r7
 8001528:	b007      	add	sp, #28
 800152a:	bdf0      	pop	{r4, r5, r6, r7, pc}
 800152c:	2000      	movs	r0, #0
 800152e:	68bb      	ldr	r3, [r7, #8]
 8001530:	5d1b      	ldrb	r3, [r3, r4]
 8001532:	7033      	strb	r3, [r6, #0]
 8001534:	4285      	cmp	r5, r0
 8001536:	d00a      	beq.n	800154e <IRInterface_Send+0x8a>
 8001538:	4b0a      	ldr	r3, [pc, #40]	@ (8001564 <IRInterface_Send+0xa0>)
 800153a:	6ad8      	ldr	r0, [r3, #44]	@ 0x2c
 800153c:	f7ff fdba 	bl	80010b4 <__aeabi_ui2d>
 8001540:	4a09      	ldr	r2, [pc, #36]	@ (8001568 <IRInterface_Send+0xa4>)
 8001542:	4b0a      	ldr	r3, [pc, #40]	@ (800156c <IRInterface_Send+0xa8>)
 8001544:	f7fe fe8a 	bl	800025c <__aeabi_dmul>
 8001548:	f7fe fe6a 	bl	8000220 <__aeabi_d2uiz>
 800154c:	b2c0      	uxtb	r0, r0
 800154e:	2301      	movs	r3, #1
 8001550:	7070      	strb	r0, [r6, #1]
 8001552:	405d      	eors	r5, r3
 8001554:	18e4      	adds	r4, r4, r3
 8001556:	3602      	adds	r6, #2
 8001558:	e7d0      	b.n	80014fc <IRInterface_Send+0x38>
 800155a:	46c0      	nop			@ (mov r8, r8)
 800155c:	20000084 	.word	0x20000084
 8001560:	20000080 	.word	0x20000080
 8001564:	40014400 	.word	0x40014400
 8001568:	51eb851f 	.word	0x51eb851f
 800156c:	3fd51eb8 	.word	0x3fd51eb8

08001570 <SystemClock_Config>:
 8001570:	b510      	push	{r4, lr}
 8001572:	2410      	movs	r4, #16
 8001574:	b094      	sub	sp, #80	@ 0x50
 8001576:	222c      	movs	r2, #44	@ 0x2c
 8001578:	2100      	movs	r1, #0
 800157a:	a809      	add	r0, sp, #36	@ 0x24
 800157c:	f001 fece 	bl	800331c <memset>
 8001580:	0022      	movs	r2, r4
 8001582:	2100      	movs	r1, #0
 8001584:	4668      	mov	r0, sp
 8001586:	f001 fec9 	bl	800331c <memset>
 800158a:	2100      	movs	r1, #0
 800158c:	0022      	movs	r2, r4
 800158e:	a804      	add	r0, sp, #16
 8001590:	f001 fec4 	bl	800331c <memset>
 8001594:	2302      	movs	r3, #2
 8001596:	a808      	add	r0, sp, #32
 8001598:	9308      	str	r3, [sp, #32]
 800159a:	3b01      	subs	r3, #1
 800159c:	930b      	str	r3, [sp, #44]	@ 0x2c
 800159e:	940c      	str	r4, [sp, #48]	@ 0x30
 80015a0:	f000 ff20 	bl	80023e4 <HAL_RCC_OscConfig>
 80015a4:	1e01      	subs	r1, r0, #0
 80015a6:	d001      	beq.n	80015ac <SystemClock_Config+0x3c>
 80015a8:	b672      	cpsid	i
 80015aa:	e7fe      	b.n	80015aa <SystemClock_Config+0x3a>
 80015ac:	2307      	movs	r3, #7
 80015ae:	9001      	str	r0, [sp, #4]
 80015b0:	9002      	str	r0, [sp, #8]
 80015b2:	9003      	str	r0, [sp, #12]
 80015b4:	4668      	mov	r0, sp
 80015b6:	9300      	str	r3, [sp, #0]
 80015b8:	f001 f938 	bl	800282c <HAL_RCC_ClockConfig>
 80015bc:	2800      	cmp	r0, #0
 80015be:	d001      	beq.n	80015c4 <SystemClock_Config+0x54>
 80015c0:	b672      	cpsid	i
 80015c2:	e7fe      	b.n	80015c2 <SystemClock_Config+0x52>
 80015c4:	2320      	movs	r3, #32
 80015c6:	9007      	str	r0, [sp, #28]
 80015c8:	a804      	add	r0, sp, #16
 80015ca:	9304      	str	r3, [sp, #16]
 80015cc:	f001 f9b2 	bl	8002934 <HAL_RCCEx_PeriphCLKConfig>
 80015d0:	2800      	cmp	r0, #0
 80015d2:	d001      	beq.n	80015d8 <SystemClock_Config+0x68>
 80015d4:	b672      	cpsid	i
 80015d6:	e7fe      	b.n	80015d6 <SystemClock_Config+0x66>
 80015d8:	b014      	add	sp, #80	@ 0x50
 80015da:	bd10      	pop	{r4, pc}

080015dc <main>:
 80015dc:	b570      	push	{r4, r5, r6, lr}
 80015de:	b092      	sub	sp, #72	@ 0x48
 80015e0:	f000 f9c0 	bl	8001964 <HAL_Init>
 80015e4:	f7ff ffc4 	bl	8001570 <SystemClock_Config>
 80015e8:	2180      	movs	r1, #128	@ 0x80
 80015ea:	2401      	movs	r4, #1
 80015ec:	4b43      	ldr	r3, [pc, #268]	@ (80016fc <main+0x120>)
 80015ee:	0289      	lsls	r1, r1, #10
 80015f0:	695a      	ldr	r2, [r3, #20]
 80015f2:	200a      	movs	r0, #10
 80015f4:	430a      	orrs	r2, r1
 80015f6:	615a      	str	r2, [r3, #20]
 80015f8:	695a      	ldr	r2, [r3, #20]
 80015fa:	400a      	ands	r2, r1
 80015fc:	9202      	str	r2, [sp, #8]
 80015fe:	9a02      	ldr	r2, [sp, #8]
 8001600:	695a      	ldr	r2, [r3, #20]
 8001602:	4322      	orrs	r2, r4
 8001604:	615a      	str	r2, [r3, #20]
 8001606:	2200      	movs	r2, #0
 8001608:	695b      	ldr	r3, [r3, #20]
 800160a:	0011      	movs	r1, r2
 800160c:	4023      	ands	r3, r4
 800160e:	9301      	str	r3, [sp, #4]
 8001610:	9b01      	ldr	r3, [sp, #4]
 8001612:	f000 f9c9 	bl	80019a8 <HAL_NVIC_SetPriority>
 8001616:	200a      	movs	r0, #10
 8001618:	f000 f9f0 	bl	80019fc <HAL_NVIC_EnableIRQ>
 800161c:	4d38      	ldr	r5, [pc, #224]	@ (8001700 <main+0x124>)
 800161e:	4b39      	ldr	r3, [pc, #228]	@ (8001704 <main+0x128>)
 8001620:	0028      	movs	r0, r5
 8001622:	602b      	str	r3, [r5, #0]
 8001624:	4b38      	ldr	r3, [pc, #224]	@ (8001708 <main+0x12c>)
 8001626:	60ec      	str	r4, [r5, #12]
 8001628:	606b      	str	r3, [r5, #4]
 800162a:	2300      	movs	r3, #0
 800162c:	60ab      	str	r3, [r5, #8]
 800162e:	612b      	str	r3, [r5, #16]
 8001630:	616b      	str	r3, [r5, #20]
 8001632:	61ab      	str	r3, [r5, #24]
 8001634:	61eb      	str	r3, [r5, #28]
 8001636:	622b      	str	r3, [r5, #32]
 8001638:	f000 fcf8 	bl	800202c <HAL_I2C_Init>
 800163c:	1e01      	subs	r1, r0, #0
 800163e:	d001      	beq.n	8001644 <main+0x68>
 8001640:	b672      	cpsid	i
 8001642:	e7fe      	b.n	8001642 <main+0x66>
 8001644:	0028      	movs	r0, r5
 8001646:	f000 fe83 	bl	8002350 <HAL_I2CEx_ConfigAnalogFilter>
 800164a:	1e01      	subs	r1, r0, #0
 800164c:	d001      	beq.n	8001652 <main+0x76>
 800164e:	b672      	cpsid	i
 8001650:	e7fe      	b.n	8001650 <main+0x74>
 8001652:	0028      	movs	r0, r5
 8001654:	f000 fea2 	bl	800239c <HAL_I2CEx_ConfigDigitalFilter>
 8001658:	1e06      	subs	r6, r0, #0
 800165a:	d001      	beq.n	8001660 <main+0x84>
 800165c:	b672      	cpsid	i
 800165e:	e7fe      	b.n	800165e <main+0x82>
 8001660:	0001      	movs	r1, r0
 8001662:	221c      	movs	r2, #28
 8001664:	a803      	add	r0, sp, #12
 8001666:	f001 fe59 	bl	800331c <memset>
 800166a:	2220      	movs	r2, #32
 800166c:	0031      	movs	r1, r6
 800166e:	a80a      	add	r0, sp, #40	@ 0x28
 8001670:	f001 fe54 	bl	800331c <memset>
 8001674:	4c25      	ldr	r4, [pc, #148]	@ (800170c <main+0x130>)
 8001676:	4b26      	ldr	r3, [pc, #152]	@ (8001710 <main+0x134>)
 8001678:	0020      	movs	r0, r4
 800167a:	6023      	str	r3, [r4, #0]
 800167c:	23d2      	movs	r3, #210	@ 0xd2
 800167e:	6066      	str	r6, [r4, #4]
 8001680:	60a6      	str	r6, [r4, #8]
 8001682:	60e3      	str	r3, [r4, #12]
 8001684:	6126      	str	r6, [r4, #16]
 8001686:	6166      	str	r6, [r4, #20]
 8001688:	61a6      	str	r6, [r4, #24]
 800168a:	f001 fbe7 	bl	8002e5c <HAL_TIM_Base_Init>
 800168e:	2800      	cmp	r0, #0
 8001690:	d001      	beq.n	8001696 <main+0xba>
 8001692:	b672      	cpsid	i
 8001694:	e7fe      	b.n	8001694 <main+0xb8>
 8001696:	0020      	movs	r0, r4
 8001698:	f001 fc08 	bl	8002eac <HAL_TIM_PWM_Init>
 800169c:	1e02      	subs	r2, r0, #0
 800169e:	d001      	beq.n	80016a4 <main+0xc8>
 80016a0:	b672      	cpsid	i
 80016a2:	e7fe      	b.n	80016a2 <main+0xc6>
 80016a4:	2360      	movs	r3, #96	@ 0x60
 80016a6:	9004      	str	r0, [sp, #16]
 80016a8:	9005      	str	r0, [sp, #20]
 80016aa:	9006      	str	r0, [sp, #24]
 80016ac:	9007      	str	r0, [sp, #28]
 80016ae:	9008      	str	r0, [sp, #32]
 80016b0:	9009      	str	r0, [sp, #36]	@ 0x24
 80016b2:	a903      	add	r1, sp, #12
 80016b4:	0020      	movs	r0, r4
 80016b6:	9303      	str	r3, [sp, #12]
 80016b8:	f001 fc5c 	bl	8002f74 <HAL_TIM_PWM_ConfigChannel>
 80016bc:	2800      	cmp	r0, #0
 80016be:	d001      	beq.n	80016c4 <main+0xe8>
 80016c0:	b672      	cpsid	i
 80016c2:	e7fe      	b.n	80016c2 <main+0xe6>
 80016c4:	2380      	movs	r3, #128	@ 0x80
 80016c6:	900a      	str	r0, [sp, #40]	@ 0x28
 80016c8:	900b      	str	r0, [sp, #44]	@ 0x2c
 80016ca:	900c      	str	r0, [sp, #48]	@ 0x30
 80016cc:	900d      	str	r0, [sp, #52]	@ 0x34
 80016ce:	900e      	str	r0, [sp, #56]	@ 0x38
 80016d0:	019b      	lsls	r3, r3, #6
 80016d2:	9011      	str	r0, [sp, #68]	@ 0x44
 80016d4:	a90a      	add	r1, sp, #40	@ 0x28
 80016d6:	0020      	movs	r0, r4
 80016d8:	930f      	str	r3, [sp, #60]	@ 0x3c
 80016da:	f001 fd13 	bl	8003104 <HAL_TIMEx_ConfigBreakDeadTime>
 80016de:	2800      	cmp	r0, #0
 80016e0:	d001      	beq.n	80016e6 <main+0x10a>
 80016e2:	b672      	cpsid	i
 80016e4:	e7fe      	b.n	80016e4 <main+0x108>
 80016e6:	0020      	movs	r0, r4
 80016e8:	f000 f894 	bl	8001814 <HAL_TIM_MspPostInit>
 80016ec:	0028      	movs	r0, r5
 80016ee:	f7ff fec5 	bl	800147c <IRInterface_Init>
 80016f2:	2143      	movs	r1, #67	@ 0x43
 80016f4:	0020      	movs	r0, r4
 80016f6:	f7ff fee5 	bl	80014c4 <IRInterface_Send>
 80016fa:	e7fe      	b.n	80016fa <main+0x11e>
 80016fc:	40021000 	.word	0x40021000
 8001700:	20000114 	.word	0x20000114
 8001704:	40005400 	.word	0x40005400
 8001708:	00201d2b 	.word	0x00201d2b
 800170c:	200000cc 	.word	0x200000cc
 8001710:	40014400 	.word	0x40014400

08001714 <Error_Handler>:
 8001714:	b672      	cpsid	i
 8001716:	e7fe      	b.n	8001716 <Error_Handler+0x2>

08001718 <HAL_MspInit>:
 8001718:	2101      	movs	r1, #1
 800171a:	4b0a      	ldr	r3, [pc, #40]	@ (8001744 <HAL_MspInit+0x2c>)
 800171c:	b082      	sub	sp, #8
 800171e:	699a      	ldr	r2, [r3, #24]
 8001720:	430a      	orrs	r2, r1
 8001722:	619a      	str	r2, [r3, #24]
 8001724:	699a      	ldr	r2, [r3, #24]
 8001726:	400a      	ands	r2, r1
 8001728:	2180      	movs	r1, #128	@ 0x80
 800172a:	9200      	str	r2, [sp, #0]
 800172c:	9a00      	ldr	r2, [sp, #0]
 800172e:	69da      	ldr	r2, [r3, #28]
 8001730:	0549      	lsls	r1, r1, #21
 8001732:	430a      	orrs	r2, r1
 8001734:	61da      	str	r2, [r3, #28]
 8001736:	69db      	ldr	r3, [r3, #28]
 8001738:	400b      	ands	r3, r1
 800173a:	9301      	str	r3, [sp, #4]
 800173c:	9b01      	ldr	r3, [sp, #4]
 800173e:	b002      	add	sp, #8
 8001740:	4770      	bx	lr
 8001742:	46c0      	nop			@ (mov r8, r8)
 8001744:	40021000 	.word	0x40021000

08001748 <HAL_I2C_MspInit>:
 8001748:	b510      	push	{r4, lr}
 800174a:	0004      	movs	r4, r0
 800174c:	b088      	sub	sp, #32
 800174e:	2214      	movs	r2, #20
 8001750:	2100      	movs	r1, #0
 8001752:	a803      	add	r0, sp, #12
 8001754:	f001 fde2 	bl	800331c <memset>
 8001758:	4b13      	ldr	r3, [pc, #76]	@ (80017a8 <HAL_I2C_MspInit+0x60>)
 800175a:	6822      	ldr	r2, [r4, #0]
 800175c:	429a      	cmp	r2, r3
 800175e:	d120      	bne.n	80017a2 <HAL_I2C_MspInit+0x5a>
 8001760:	2280      	movs	r2, #128	@ 0x80
 8001762:	4c12      	ldr	r4, [pc, #72]	@ (80017ac <HAL_I2C_MspInit+0x64>)
 8001764:	0292      	lsls	r2, r2, #10
 8001766:	6963      	ldr	r3, [r4, #20]
 8001768:	2090      	movs	r0, #144	@ 0x90
 800176a:	4313      	orrs	r3, r2
 800176c:	6163      	str	r3, [r4, #20]
 800176e:	6963      	ldr	r3, [r4, #20]
 8001770:	a903      	add	r1, sp, #12
 8001772:	4013      	ands	r3, r2
 8001774:	9301      	str	r3, [sp, #4]
 8001776:	9b01      	ldr	r3, [sp, #4]
 8001778:	23c0      	movs	r3, #192	@ 0xc0
 800177a:	00db      	lsls	r3, r3, #3
 800177c:	9303      	str	r3, [sp, #12]
 800177e:	2312      	movs	r3, #18
 8001780:	9304      	str	r3, [sp, #16]
 8001782:	3b0f      	subs	r3, #15
 8001784:	9306      	str	r3, [sp, #24]
 8001786:	05c0      	lsls	r0, r0, #23
 8001788:	3301      	adds	r3, #1
 800178a:	9307      	str	r3, [sp, #28]
 800178c:	f000 fa14 	bl	8001bb8 <HAL_GPIO_Init>
 8001790:	2280      	movs	r2, #128	@ 0x80
 8001792:	69e3      	ldr	r3, [r4, #28]
 8001794:	0392      	lsls	r2, r2, #14
 8001796:	4313      	orrs	r3, r2
 8001798:	61e3      	str	r3, [r4, #28]
 800179a:	69e3      	ldr	r3, [r4, #28]
 800179c:	4013      	ands	r3, r2
 800179e:	9302      	str	r3, [sp, #8]
 80017a0:	9b02      	ldr	r3, [sp, #8]
 80017a2:	b008      	add	sp, #32
 80017a4:	bd10      	pop	{r4, pc}
 80017a6:	46c0      	nop			@ (mov r8, r8)
 80017a8:	40005400 	.word	0x40005400
 80017ac:	40021000 	.word	0x40021000

080017b0 <HAL_TIM_Base_MspInit>:
 80017b0:	b537      	push	{r0, r1, r2, r4, r5, lr}
 80017b2:	4b14      	ldr	r3, [pc, #80]	@ (8001804 <HAL_TIM_Base_MspInit+0x54>)
 80017b4:	6802      	ldr	r2, [r0, #0]
 80017b6:	0005      	movs	r5, r0
 80017b8:	429a      	cmp	r2, r3
 80017ba:	d121      	bne.n	8001800 <HAL_TIM_Base_MspInit+0x50>
 80017bc:	2180      	movs	r1, #128	@ 0x80
 80017be:	4b12      	ldr	r3, [pc, #72]	@ (8001808 <HAL_TIM_Base_MspInit+0x58>)
 80017c0:	0289      	lsls	r1, r1, #10
 80017c2:	699a      	ldr	r2, [r3, #24]
 80017c4:	4c11      	ldr	r4, [pc, #68]	@ (800180c <HAL_TIM_Base_MspInit+0x5c>)
 80017c6:	430a      	orrs	r2, r1
 80017c8:	619a      	str	r2, [r3, #24]
 80017ca:	699b      	ldr	r3, [r3, #24]
 80017cc:	2280      	movs	r2, #128	@ 0x80
 80017ce:	400b      	ands	r3, r1
 80017d0:	9301      	str	r3, [sp, #4]
 80017d2:	9b01      	ldr	r3, [sp, #4]
 80017d4:	4b0e      	ldr	r3, [pc, #56]	@ (8001810 <HAL_TIM_Base_MspInit+0x60>)
 80017d6:	60e2      	str	r2, [r4, #12]
 80017d8:	6023      	str	r3, [r4, #0]
 80017da:	2300      	movs	r3, #0
 80017dc:	3281      	adds	r2, #129	@ 0x81
 80017de:	32ff      	adds	r2, #255	@ 0xff
 80017e0:	0020      	movs	r0, r4
 80017e2:	6063      	str	r3, [r4, #4]
 80017e4:	60a3      	str	r3, [r4, #8]
 80017e6:	6122      	str	r2, [r4, #16]
 80017e8:	6163      	str	r3, [r4, #20]
 80017ea:	61a3      	str	r3, [r4, #24]
 80017ec:	61e3      	str	r3, [r4, #28]
 80017ee:	f000 f92b 	bl	8001a48 <HAL_DMA_Init>
 80017f2:	2800      	cmp	r0, #0
 80017f4:	d001      	beq.n	80017fa <HAL_TIM_Base_MspInit+0x4a>
 80017f6:	f7ff ff8d 	bl	8001714 <Error_Handler>
 80017fa:	626c      	str	r4, [r5, #36]	@ 0x24
 80017fc:	622c      	str	r4, [r5, #32]
 80017fe:	6265      	str	r5, [r4, #36]	@ 0x24
 8001800:	bd37      	pop	{r0, r1, r2, r4, r5, pc}
 8001802:	46c0      	nop			@ (mov r8, r8)
 8001804:	40014400 	.word	0x40014400
 8001808:	40021000 	.word	0x40021000
 800180c:	20000088 	.word	0x20000088
 8001810:	40020030 	.word	0x40020030

08001814 <HAL_TIM_MspPostInit>:
 8001814:	b510      	push	{r4, lr}
 8001816:	0004      	movs	r4, r0
 8001818:	b086      	sub	sp, #24
 800181a:	2214      	movs	r2, #20
 800181c:	2100      	movs	r1, #0
 800181e:	a801      	add	r0, sp, #4
 8001820:	f001 fd7c 	bl	800331c <memset>
 8001824:	4b0d      	ldr	r3, [pc, #52]	@ (800185c <HAL_TIM_MspPostInit+0x48>)
 8001826:	6822      	ldr	r2, [r4, #0]
 8001828:	429a      	cmp	r2, r3
 800182a:	d114      	bne.n	8001856 <HAL_TIM_MspPostInit+0x42>
 800182c:	2180      	movs	r1, #128	@ 0x80
 800182e:	4b0c      	ldr	r3, [pc, #48]	@ (8001860 <HAL_TIM_MspPostInit+0x4c>)
 8001830:	0289      	lsls	r1, r1, #10
 8001832:	695a      	ldr	r2, [r3, #20]
 8001834:	2090      	movs	r0, #144	@ 0x90
 8001836:	430a      	orrs	r2, r1
 8001838:	615a      	str	r2, [r3, #20]
 800183a:	695b      	ldr	r3, [r3, #20]
 800183c:	05c0      	lsls	r0, r0, #23
 800183e:	400b      	ands	r3, r1
 8001840:	9300      	str	r3, [sp, #0]
 8001842:	9b00      	ldr	r3, [sp, #0]
 8001844:	2340      	movs	r3, #64	@ 0x40
 8001846:	9301      	str	r3, [sp, #4]
 8001848:	3b3e      	subs	r3, #62	@ 0x3e
 800184a:	9302      	str	r3, [sp, #8]
 800184c:	a901      	add	r1, sp, #4
 800184e:	3303      	adds	r3, #3
 8001850:	9305      	str	r3, [sp, #20]
 8001852:	f000 f9b1 	bl	8001bb8 <HAL_GPIO_Init>
 8001856:	b006      	add	sp, #24
 8001858:	bd10      	pop	{r4, pc}
 800185a:	46c0      	nop			@ (mov r8, r8)
 800185c:	40014400 	.word	0x40014400
 8001860:	40021000 	.word	0x40021000

08001864 <NMI_Handler>:
 8001864:	e7fe      	b.n	8001864 <NMI_Handler>

08001866 <HardFault_Handler>:
 8001866:	e7fe      	b.n	8001866 <HardFault_Handler>

08001868 <SVC_Handler>:
 8001868:	4770      	bx	lr

0800186a <PendSV_Handler>:
 800186a:	4770      	bx	lr

0800186c <SysTick_Handler>:
 800186c:	b510      	push	{r4, lr}
 800186e:	f000 f889 	bl	8001984 <HAL_IncTick>
 8001872:	bd10      	pop	{r4, pc}

08001874 <DMA1_Channel2_3_IRQHandler>:
 8001874:	b510      	push	{r4, lr}
 8001876:	4802      	ldr	r0, [pc, #8]	@ (8001880 <DMA1_Channel2_3_IRQHandler+0xc>)
 8001878:	f000 f954 	bl	8001b24 <HAL_DMA_IRQHandler>
 800187c:	bd10      	pop	{r4, pc}
 800187e:	46c0      	nop			@ (mov r8, r8)
 8001880:	20000088 	.word	0x20000088

08001884 <_sbrk>:
 8001884:	490b      	ldr	r1, [pc, #44]	@ (80018b4 <_sbrk+0x30>)
 8001886:	4a0c      	ldr	r2, [pc, #48]	@ (80018b8 <_sbrk+0x34>)
 8001888:	0003      	movs	r3, r0
 800188a:	1a52      	subs	r2, r2, r1
 800188c:	490b      	ldr	r1, [pc, #44]	@ (80018bc <_sbrk+0x38>)
 800188e:	b510      	push	{r4, lr}
 8001890:	6808      	ldr	r0, [r1, #0]
 8001892:	2800      	cmp	r0, #0
 8001894:	d101      	bne.n	800189a <_sbrk+0x16>
 8001896:	480a      	ldr	r0, [pc, #40]	@ (80018c0 <_sbrk+0x3c>)
 8001898:	6008      	str	r0, [r1, #0]
 800189a:	6808      	ldr	r0, [r1, #0]
 800189c:	18c3      	adds	r3, r0, r3
 800189e:	4293      	cmp	r3, r2
 80018a0:	d906      	bls.n	80018b0 <_sbrk+0x2c>
 80018a2:	f001 fd55 	bl	8003350 <__errno>
 80018a6:	230c      	movs	r3, #12
 80018a8:	6003      	str	r3, [r0, #0]
 80018aa:	2001      	movs	r0, #1
 80018ac:	4240      	negs	r0, r0
 80018ae:	bd10      	pop	{r4, pc}
 80018b0:	600b      	str	r3, [r1, #0]
 80018b2:	e7fc      	b.n	80018ae <_sbrk+0x2a>
 80018b4:	00000400 	.word	0x00000400
 80018b8:	20001000 	.word	0x20001000
 80018bc:	20000168 	.word	0x20000168
 80018c0:	200002b8 	.word	0x200002b8

080018c4 <SystemInit>:
 80018c4:	4770      	bx	lr
	...

080018c8 <Reset_Handler>:
 80018c8:	480d      	ldr	r0, [pc, #52]	@ (8001900 <LoopForever+0x2>)
 80018ca:	4685      	mov	sp, r0
 80018cc:	f7ff fffa 	bl	80018c4 <SystemInit>
 80018d0:	480c      	ldr	r0, [pc, #48]	@ (8001904 <LoopForever+0x6>)
 80018d2:	490d      	ldr	r1, [pc, #52]	@ (8001908 <LoopForever+0xa>)
 80018d4:	4a0d      	ldr	r2, [pc, #52]	@ (800190c <LoopForever+0xe>)
 80018d6:	2300      	movs	r3, #0
 80018d8:	e002      	b.n	80018e0 <LoopCopyDataInit>

080018da <CopyDataInit>:
 80018da:	58d4      	ldr	r4, [r2, r3]
 80018dc:	50c4      	str	r4, [r0, r3]
 80018de:	3304      	adds	r3, #4

080018e0 <LoopCopyDataInit>:
 80018e0:	18c4      	adds	r4, r0, r3
 80018e2:	428c      	cmp	r4, r1
 80018e4:	d3f9      	bcc.n	80018da <CopyDataInit>
 80018e6:	4a0a      	ldr	r2, [pc, #40]	@ (8001910 <LoopForever+0x12>)
 80018e8:	4c0a      	ldr	r4, [pc, #40]	@ (8001914 <LoopForever+0x16>)
 80018ea:	2300      	movs	r3, #0
 80018ec:	e001      	b.n	80018f2 <LoopFillZerobss>

080018ee <FillZerobss>:
 80018ee:	6013      	str	r3, [r2, #0]
 80018f0:	3204      	adds	r2, #4

080018f2 <LoopFillZerobss>:
 80018f2:	42a2      	cmp	r2, r4
 80018f4:	d3fb      	bcc.n	80018ee <FillZerobss>
 80018f6:	f001 fd31 	bl	800335c <__libc_init_array>
 80018fa:	f7ff fe6f 	bl	80015dc <main>

080018fe <LoopForever>:
 80018fe:	e7fe      	b.n	80018fe <LoopForever>
 8001900:	20001000 	.word	0x20001000
 8001904:	20000000 	.word	0x20000000
 8001908:	20000060 	.word	0x20000060
 800190c:	0800348c 	.word	0x0800348c
 8001910:	20000060 	.word	0x20000060
 8001914:	200002b8 	.word	0x200002b8

08001918 <ADC1_IRQHandler>:
 8001918:	e7fe      	b.n	8001918 <ADC1_IRQHandler>
	...

0800191c <HAL_InitTick>:
 800191c:	b570      	push	{r4, r5, r6, lr}
 800191e:	0005      	movs	r5, r0
 8001920:	20fa      	movs	r0, #250	@ 0xfa
 8001922:	4b0d      	ldr	r3, [pc, #52]	@ (8001958 <HAL_InitTick+0x3c>)
 8001924:	0080      	lsls	r0, r0, #2
 8001926:	7819      	ldrb	r1, [r3, #0]
 8001928:	f7fe fbee 	bl	8000108 <__udivsi3>
 800192c:	4c0b      	ldr	r4, [pc, #44]	@ (800195c <HAL_InitTick+0x40>)
 800192e:	0001      	movs	r1, r0
 8001930:	6820      	ldr	r0, [r4, #0]
 8001932:	f7fe fbe9 	bl	8000108 <__udivsi3>
 8001936:	f000 f86d 	bl	8001a14 <HAL_SYSTICK_Config>
 800193a:	0004      	movs	r4, r0
 800193c:	2001      	movs	r0, #1
 800193e:	2c00      	cmp	r4, #0
 8001940:	d109      	bne.n	8001956 <HAL_InitTick+0x3a>
 8001942:	2d03      	cmp	r5, #3
 8001944:	d807      	bhi.n	8001956 <HAL_InitTick+0x3a>
 8001946:	3802      	subs	r0, #2
 8001948:	0022      	movs	r2, r4
 800194a:	0029      	movs	r1, r5
 800194c:	f000 f82c 	bl	80019a8 <HAL_NVIC_SetPriority>
 8001950:	0020      	movs	r0, r4
 8001952:	4b03      	ldr	r3, [pc, #12]	@ (8001960 <HAL_InitTick+0x44>)
 8001954:	601d      	str	r5, [r3, #0]
 8001956:	bd70      	pop	{r4, r5, r6, pc}
 8001958:	20000008 	.word	0x20000008
 800195c:	20000004 	.word	0x20000004
 8001960:	2000000c 	.word	0x2000000c

08001964 <HAL_Init>:
 8001964:	2310      	movs	r3, #16
 8001966:	4a06      	ldr	r2, [pc, #24]	@ (8001980 <HAL_Init+0x1c>)
 8001968:	b510      	push	{r4, lr}
 800196a:	6811      	ldr	r1, [r2, #0]
 800196c:	2003      	movs	r0, #3
 800196e:	430b      	orrs	r3, r1
 8001970:	6013      	str	r3, [r2, #0]
 8001972:	f7ff ffd3 	bl	800191c <HAL_InitTick>
 8001976:	f7ff fecf 	bl	8001718 <HAL_MspInit>
 800197a:	2000      	movs	r0, #0
 800197c:	bd10      	pop	{r4, pc}
 800197e:	46c0      	nop			@ (mov r8, r8)
 8001980:	40022000 	.word	0x40022000

08001984 <HAL_IncTick>:
 8001984:	4a03      	ldr	r2, [pc, #12]	@ (8001994 <HAL_IncTick+0x10>)
 8001986:	4b04      	ldr	r3, [pc, #16]	@ (8001998 <HAL_IncTick+0x14>)
 8001988:	6811      	ldr	r1, [r2, #0]
 800198a:	781b      	ldrb	r3, [r3, #0]
 800198c:	185b      	adds	r3, r3, r1
 800198e:	6013      	str	r3, [r2, #0]
 8001990:	4770      	bx	lr
 8001992:	46c0      	nop			@ (mov r8, r8)
 8001994:	2000016c 	.word	0x2000016c
 8001998:	20000008 	.word	0x20000008

0800199c <HAL_GetTick>:
 800199c:	4b01      	ldr	r3, [pc, #4]	@ (80019a4 <HAL_GetTick+0x8>)
 800199e:	6818      	ldr	r0, [r3, #0]
 80019a0:	4770      	bx	lr
 80019a2:	46c0      	nop			@ (mov r8, r8)
 80019a4:	2000016c 	.word	0x2000016c

080019a8 <HAL_NVIC_SetPriority>:
 80019a8:	b510      	push	{r4, lr}
 80019aa:	24ff      	movs	r4, #255	@ 0xff
 80019ac:	2203      	movs	r2, #3
 80019ae:	000b      	movs	r3, r1
 80019b0:	0021      	movs	r1, r4
 80019b2:	4002      	ands	r2, r0
 80019b4:	00d2      	lsls	r2, r2, #3
 80019b6:	4091      	lsls	r1, r2
 80019b8:	019b      	lsls	r3, r3, #6
 80019ba:	4023      	ands	r3, r4
 80019bc:	43c9      	mvns	r1, r1
 80019be:	4093      	lsls	r3, r2
 80019c0:	2800      	cmp	r0, #0
 80019c2:	db0a      	blt.n	80019da <HAL_NVIC_SetPriority+0x32>
 80019c4:	24c0      	movs	r4, #192	@ 0xc0
 80019c6:	4a0b      	ldr	r2, [pc, #44]	@ (80019f4 <HAL_NVIC_SetPriority+0x4c>)
 80019c8:	0880      	lsrs	r0, r0, #2
 80019ca:	0080      	lsls	r0, r0, #2
 80019cc:	1880      	adds	r0, r0, r2
 80019ce:	00a4      	lsls	r4, r4, #2
 80019d0:	5902      	ldr	r2, [r0, r4]
 80019d2:	400a      	ands	r2, r1
 80019d4:	4313      	orrs	r3, r2
 80019d6:	5103      	str	r3, [r0, r4]
 80019d8:	bd10      	pop	{r4, pc}
 80019da:	220f      	movs	r2, #15
 80019dc:	4010      	ands	r0, r2
 80019de:	3808      	subs	r0, #8
 80019e0:	4a05      	ldr	r2, [pc, #20]	@ (80019f8 <HAL_NVIC_SetPriority+0x50>)
 80019e2:	0880      	lsrs	r0, r0, #2
 80019e4:	0080      	lsls	r0, r0, #2
 80019e6:	1880      	adds	r0, r0, r2
 80019e8:	69c2      	ldr	r2, [r0, #28]
 80019ea:	4011      	ands	r1, r2
 80019ec:	4319      	orrs	r1, r3
 80019ee:	61c1      	str	r1, [r0, #28]
 80019f0:	e7f2      	b.n	80019d8 <HAL_NVIC_SetPriority+0x30>
 80019f2:	46c0      	nop			@ (mov r8, r8)
 80019f4:	e000e100 	.word	0xe000e100
 80019f8:	e000ed00 	.word	0xe000ed00

080019fc <HAL_NVIC_EnableIRQ>:
 80019fc:	2800      	cmp	r0, #0
 80019fe:	db05      	blt.n	8001a0c <HAL_NVIC_EnableIRQ+0x10>
 8001a00:	231f      	movs	r3, #31
 8001a02:	4018      	ands	r0, r3
 8001a04:	3b1e      	subs	r3, #30
 8001a06:	4083      	lsls	r3, r0
 8001a08:	4a01      	ldr	r2, [pc, #4]	@ (8001a10 <HAL_NVIC_EnableIRQ+0x14>)
 8001a0a:	6013      	str	r3, [r2, #0]
 8001a0c:	4770      	bx	lr
 8001a0e:	46c0      	nop			@ (mov r8, r8)
 8001a10:	e000e100 	.word	0xe000e100

08001a14 <HAL_SYSTICK_Config>:
 8001a14:	2280      	movs	r2, #128	@ 0x80
 8001a16:	1e43      	subs	r3, r0, #1
 8001a18:	0452      	lsls	r2, r2, #17
 8001a1a:	2001      	movs	r0, #1
 8001a1c:	4293      	cmp	r3, r2
 8001a1e:	d20d      	bcs.n	8001a3c <HAL_SYSTICK_Config+0x28>
 8001a20:	21c0      	movs	r1, #192	@ 0xc0
 8001a22:	4a07      	ldr	r2, [pc, #28]	@ (8001a40 <HAL_SYSTICK_Config+0x2c>)
 8001a24:	4807      	ldr	r0, [pc, #28]	@ (8001a44 <HAL_SYSTICK_Config+0x30>)
 8001a26:	6053      	str	r3, [r2, #4]
 8001a28:	6a03      	ldr	r3, [r0, #32]
 8001a2a:	0609      	lsls	r1, r1, #24
 8001a2c:	021b      	lsls	r3, r3, #8
 8001a2e:	0a1b      	lsrs	r3, r3, #8
 8001a30:	430b      	orrs	r3, r1
 8001a32:	6203      	str	r3, [r0, #32]
 8001a34:	2000      	movs	r0, #0
 8001a36:	2307      	movs	r3, #7
 8001a38:	6090      	str	r0, [r2, #8]
 8001a3a:	6013      	str	r3, [r2, #0]
 8001a3c:	4770      	bx	lr
 8001a3e:	46c0      	nop			@ (mov r8, r8)
 8001a40:	e000e010 	.word	0xe000e010
 8001a44:	e000ed00 	.word	0xe000ed00

08001a48 <HAL_DMA_Init>:
 8001a48:	b570      	push	{r4, r5, r6, lr}
 8001a4a:	0004      	movs	r4, r0
 8001a4c:	2001      	movs	r0, #1
 8001a4e:	2c00      	cmp	r4, #0
 8001a50:	d024      	beq.n	8001a9c <HAL_DMA_Init+0x54>
 8001a52:	2302      	movs	r3, #2
 8001a54:	1ca5      	adds	r5, r4, #2
 8001a56:	77eb      	strb	r3, [r5, #31]
 8001a58:	6820      	ldr	r0, [r4, #0]
 8001a5a:	4b11      	ldr	r3, [pc, #68]	@ (8001aa0 <HAL_DMA_Init+0x58>)
 8001a5c:	6802      	ldr	r2, [r0, #0]
 8001a5e:	68a1      	ldr	r1, [r4, #8]
 8001a60:	401a      	ands	r2, r3
 8001a62:	6863      	ldr	r3, [r4, #4]
 8001a64:	430b      	orrs	r3, r1
 8001a66:	68e1      	ldr	r1, [r4, #12]
 8001a68:	430b      	orrs	r3, r1
 8001a6a:	6921      	ldr	r1, [r4, #16]
 8001a6c:	430b      	orrs	r3, r1
 8001a6e:	6961      	ldr	r1, [r4, #20]
 8001a70:	430b      	orrs	r3, r1
 8001a72:	69a1      	ldr	r1, [r4, #24]
 8001a74:	430b      	orrs	r3, r1
 8001a76:	69e1      	ldr	r1, [r4, #28]
 8001a78:	430b      	orrs	r3, r1
 8001a7a:	4313      	orrs	r3, r2
 8001a7c:	6003      	str	r3, [r0, #0]
 8001a7e:	4b09      	ldr	r3, [pc, #36]	@ (8001aa4 <HAL_DMA_Init+0x5c>)
 8001a80:	2114      	movs	r1, #20
 8001a82:	18c0      	adds	r0, r0, r3
 8001a84:	f7fe fb40 	bl	8000108 <__udivsi3>
 8001a88:	4b07      	ldr	r3, [pc, #28]	@ (8001aa8 <HAL_DMA_Init+0x60>)
 8001a8a:	0080      	lsls	r0, r0, #2
 8001a8c:	6420      	str	r0, [r4, #64]	@ 0x40
 8001a8e:	63e3      	str	r3, [r4, #60]	@ 0x3c
 8001a90:	2000      	movs	r0, #0
 8001a92:	2301      	movs	r3, #1
 8001a94:	63a0      	str	r0, [r4, #56]	@ 0x38
 8001a96:	18e4      	adds	r4, r4, r3
 8001a98:	77eb      	strb	r3, [r5, #31]
 8001a9a:	77e0      	strb	r0, [r4, #31]
 8001a9c:	bd70      	pop	{r4, r5, r6, pc}
 8001a9e:	46c0      	nop			@ (mov r8, r8)
 8001aa0:	ffffc00f 	.word	0xffffc00f
 8001aa4:	bffdfff8 	.word	0xbffdfff8
 8001aa8:	40020000 	.word	0x40020000

08001aac <HAL_DMA_Start_IT>:
 8001aac:	b5f7      	push	{r0, r1, r2, r4, r5, r6, r7, lr}
 8001aae:	1c44      	adds	r4, r0, #1
 8001ab0:	9301      	str	r3, [sp, #4]
 8001ab2:	7fe5      	ldrb	r5, [r4, #31]
 8001ab4:	2d01      	cmp	r5, #1
 8001ab6:	d033      	beq.n	8001b20 <HAL_DMA_Start_IT+0x74>
 8001ab8:	2501      	movs	r5, #1
 8001aba:	1c87      	adds	r7, r0, #2
 8001abc:	77e5      	strb	r5, [r4, #31]
 8001abe:	7ffd      	ldrb	r5, [r7, #31]
 8001ac0:	2600      	movs	r6, #0
 8001ac2:	46ac      	mov	ip, r5
 8001ac4:	4663      	mov	r3, ip
 8001ac6:	b2ed      	uxtb	r5, r5
 8001ac8:	2b01      	cmp	r3, #1
 8001aca:	d128      	bne.n	8001b1e <HAL_DMA_Start_IT+0x72>
 8001acc:	2402      	movs	r4, #2
 8001ace:	77fc      	strb	r4, [r7, #31]
 8001ad0:	6804      	ldr	r4, [r0, #0]
 8001ad2:	6386      	str	r6, [r0, #56]	@ 0x38
 8001ad4:	6826      	ldr	r6, [r4, #0]
 8001ad6:	6c07      	ldr	r7, [r0, #64]	@ 0x40
 8001ad8:	43ae      	bics	r6, r5
 8001ada:	40bd      	lsls	r5, r7
 8001adc:	6026      	str	r6, [r4, #0]
 8001ade:	9b01      	ldr	r3, [sp, #4]
 8001ae0:	6bc6      	ldr	r6, [r0, #60]	@ 0x3c
 8001ae2:	6075      	str	r5, [r6, #4]
 8001ae4:	6063      	str	r3, [r4, #4]
 8001ae6:	6843      	ldr	r3, [r0, #4]
 8001ae8:	2b10      	cmp	r3, #16
 8001aea:	d10e      	bne.n	8001b0a <HAL_DMA_Start_IT+0x5e>
 8001aec:	60a2      	str	r2, [r4, #8]
 8001aee:	60e1      	str	r1, [r4, #12]
 8001af0:	6ac3      	ldr	r3, [r0, #44]	@ 0x2c
 8001af2:	6822      	ldr	r2, [r4, #0]
 8001af4:	2b00      	cmp	r3, #0
 8001af6:	d00b      	beq.n	8001b10 <HAL_DMA_Start_IT+0x64>
 8001af8:	230e      	movs	r3, #14
 8001afa:	4313      	orrs	r3, r2
 8001afc:	6023      	str	r3, [r4, #0]
 8001afe:	2301      	movs	r3, #1
 8001b00:	2000      	movs	r0, #0
 8001b02:	6822      	ldr	r2, [r4, #0]
 8001b04:	4313      	orrs	r3, r2
 8001b06:	6023      	str	r3, [r4, #0]
 8001b08:	bdfe      	pop	{r1, r2, r3, r4, r5, r6, r7, pc}
 8001b0a:	60a1      	str	r1, [r4, #8]
 8001b0c:	60e2      	str	r2, [r4, #12]
 8001b0e:	e7ef      	b.n	8001af0 <HAL_DMA_Start_IT+0x44>
 8001b10:	230a      	movs	r3, #10
 8001b12:	4313      	orrs	r3, r2
 8001b14:	2204      	movs	r2, #4
 8001b16:	6023      	str	r3, [r4, #0]
 8001b18:	6823      	ldr	r3, [r4, #0]
 8001b1a:	4393      	bics	r3, r2
 8001b1c:	e7ee      	b.n	8001afc <HAL_DMA_Start_IT+0x50>
 8001b1e:	77e6      	strb	r6, [r4, #31]
 8001b20:	2002      	movs	r0, #2
 8001b22:	e7f1      	b.n	8001b08 <HAL_DMA_Start_IT+0x5c>

08001b24 <HAL_DMA_IRQHandler>:
 8001b24:	b5f8      	push	{r3, r4, r5, r6, r7, lr}
 8001b26:	2704      	movs	r7, #4
 8001b28:	003e      	movs	r6, r7
 8001b2a:	6c01      	ldr	r1, [r0, #64]	@ 0x40
 8001b2c:	6bc2      	ldr	r2, [r0, #60]	@ 0x3c
 8001b2e:	408e      	lsls	r6, r1
 8001b30:	6815      	ldr	r5, [r2, #0]
 8001b32:	6803      	ldr	r3, [r0, #0]
 8001b34:	681c      	ldr	r4, [r3, #0]
 8001b36:	4235      	tst	r5, r6
 8001b38:	d00d      	beq.n	8001b56 <HAL_DMA_IRQHandler+0x32>
 8001b3a:	423c      	tst	r4, r7
 8001b3c:	d00b      	beq.n	8001b56 <HAL_DMA_IRQHandler+0x32>
 8001b3e:	6819      	ldr	r1, [r3, #0]
 8001b40:	0689      	lsls	r1, r1, #26
 8001b42:	d402      	bmi.n	8001b4a <HAL_DMA_IRQHandler+0x26>
 8001b44:	6819      	ldr	r1, [r3, #0]
 8001b46:	43b9      	bics	r1, r7
 8001b48:	6019      	str	r1, [r3, #0]
 8001b4a:	6ac3      	ldr	r3, [r0, #44]	@ 0x2c
 8001b4c:	6056      	str	r6, [r2, #4]
 8001b4e:	2b00      	cmp	r3, #0
 8001b50:	d019      	beq.n	8001b86 <HAL_DMA_IRQHandler+0x62>
 8001b52:	4798      	blx	r3
 8001b54:	e017      	b.n	8001b86 <HAL_DMA_IRQHandler+0x62>
 8001b56:	2702      	movs	r7, #2
 8001b58:	003e      	movs	r6, r7
 8001b5a:	408e      	lsls	r6, r1
 8001b5c:	4235      	tst	r5, r6
 8001b5e:	d013      	beq.n	8001b88 <HAL_DMA_IRQHandler+0x64>
 8001b60:	423c      	tst	r4, r7
 8001b62:	d011      	beq.n	8001b88 <HAL_DMA_IRQHandler+0x64>
 8001b64:	6819      	ldr	r1, [r3, #0]
 8001b66:	0689      	lsls	r1, r1, #26
 8001b68:	d406      	bmi.n	8001b78 <HAL_DMA_IRQHandler+0x54>
 8001b6a:	240a      	movs	r4, #10
 8001b6c:	6819      	ldr	r1, [r3, #0]
 8001b6e:	43a1      	bics	r1, r4
 8001b70:	6019      	str	r1, [r3, #0]
 8001b72:	2101      	movs	r1, #1
 8001b74:	19c3      	adds	r3, r0, r7
 8001b76:	77d9      	strb	r1, [r3, #31]
 8001b78:	6056      	str	r6, [r2, #4]
 8001b7a:	2200      	movs	r2, #0
 8001b7c:	1c43      	adds	r3, r0, #1
 8001b7e:	77da      	strb	r2, [r3, #31]
 8001b80:	6a83      	ldr	r3, [r0, #40]	@ 0x28
 8001b82:	4293      	cmp	r3, r2
 8001b84:	d1e5      	bne.n	8001b52 <HAL_DMA_IRQHandler+0x2e>
 8001b86:	bdf8      	pop	{r3, r4, r5, r6, r7, pc}
 8001b88:	2608      	movs	r6, #8
 8001b8a:	0037      	movs	r7, r6
 8001b8c:	408f      	lsls	r7, r1
 8001b8e:	423d      	tst	r5, r7
 8001b90:	d0f9      	beq.n	8001b86 <HAL_DMA_IRQHandler+0x62>
 8001b92:	4234      	tst	r4, r6
 8001b94:	d0f7      	beq.n	8001b86 <HAL_DMA_IRQHandler+0x62>
 8001b96:	250e      	movs	r5, #14
 8001b98:	681c      	ldr	r4, [r3, #0]
 8001b9a:	43ac      	bics	r4, r5
 8001b9c:	601c      	str	r4, [r3, #0]
 8001b9e:	2301      	movs	r3, #1
 8001ba0:	001c      	movs	r4, r3
 8001ba2:	408c      	lsls	r4, r1
 8001ba4:	6054      	str	r4, [r2, #4]
 8001ba6:	1c82      	adds	r2, r0, #2
 8001ba8:	6383      	str	r3, [r0, #56]	@ 0x38
 8001baa:	77d3      	strb	r3, [r2, #31]
 8001bac:	2200      	movs	r2, #0
 8001bae:	18c3      	adds	r3, r0, r3
 8001bb0:	77da      	strb	r2, [r3, #31]
 8001bb2:	6b03      	ldr	r3, [r0, #48]	@ 0x30
 8001bb4:	e7e5      	b.n	8001b82 <HAL_DMA_IRQHandler+0x5e>
	...

08001bb8 <HAL_GPIO_Init>:
 8001bb8:	2300      	movs	r3, #0
 8001bba:	b5f0      	push	{r4, r5, r6, r7, lr}
 8001bbc:	b087      	sub	sp, #28
 8001bbe:	680a      	ldr	r2, [r1, #0]
 8001bc0:	0014      	movs	r4, r2
 8001bc2:	40dc      	lsrs	r4, r3
 8001bc4:	d101      	bne.n	8001bca <HAL_GPIO_Init+0x12>
 8001bc6:	b007      	add	sp, #28
 8001bc8:	bdf0      	pop	{r4, r5, r6, r7, pc}
 8001bca:	2501      	movs	r5, #1
 8001bcc:	0014      	movs	r4, r2
 8001bce:	409d      	lsls	r5, r3
 8001bd0:	402c      	ands	r4, r5
 8001bd2:	9400      	str	r4, [sp, #0]
 8001bd4:	422a      	tst	r2, r5
 8001bd6:	d100      	bne.n	8001bda <HAL_GPIO_Init+0x22>
 8001bd8:	e098      	b.n	8001d0c <HAL_GPIO_Init+0x154>
 8001bda:	684a      	ldr	r2, [r1, #4]
 8001bdc:	005f      	lsls	r7, r3, #1
 8001bde:	4694      	mov	ip, r2
 8001be0:	2203      	movs	r2, #3
 8001be2:	4664      	mov	r4, ip
 8001be4:	4022      	ands	r2, r4
 8001be6:	2403      	movs	r4, #3
 8001be8:	40bc      	lsls	r4, r7
 8001bea:	43e4      	mvns	r4, r4
 8001bec:	9401      	str	r4, [sp, #4]
 8001bee:	1e54      	subs	r4, r2, #1
 8001bf0:	2c01      	cmp	r4, #1
 8001bf2:	d82e      	bhi.n	8001c52 <HAL_GPIO_Init+0x9a>
 8001bf4:	6886      	ldr	r6, [r0, #8]
 8001bf6:	9c01      	ldr	r4, [sp, #4]
 8001bf8:	4026      	ands	r6, r4
 8001bfa:	68cc      	ldr	r4, [r1, #12]
 8001bfc:	40bc      	lsls	r4, r7
 8001bfe:	4334      	orrs	r4, r6
 8001c00:	6084      	str	r4, [r0, #8]
 8001c02:	6844      	ldr	r4, [r0, #4]
 8001c04:	2601      	movs	r6, #1
 8001c06:	43ac      	bics	r4, r5
 8001c08:	0025      	movs	r5, r4
 8001c0a:	4664      	mov	r4, ip
 8001c0c:	0924      	lsrs	r4, r4, #4
 8001c0e:	4034      	ands	r4, r6
 8001c10:	409c      	lsls	r4, r3
 8001c12:	432c      	orrs	r4, r5
 8001c14:	6044      	str	r4, [r0, #4]
 8001c16:	68c5      	ldr	r5, [r0, #12]
 8001c18:	9c01      	ldr	r4, [sp, #4]
 8001c1a:	4025      	ands	r5, r4
 8001c1c:	688c      	ldr	r4, [r1, #8]
 8001c1e:	40bc      	lsls	r4, r7
 8001c20:	432c      	orrs	r4, r5
 8001c22:	60c4      	str	r4, [r0, #12]
 8001c24:	2a02      	cmp	r2, #2
 8001c26:	d116      	bne.n	8001c56 <HAL_GPIO_Init+0x9e>
 8001c28:	2507      	movs	r5, #7
 8001c2a:	260f      	movs	r6, #15
 8001c2c:	401d      	ands	r5, r3
 8001c2e:	00ad      	lsls	r5, r5, #2
 8001c30:	40ae      	lsls	r6, r5
 8001c32:	08dc      	lsrs	r4, r3, #3
 8001c34:	00a4      	lsls	r4, r4, #2
 8001c36:	1904      	adds	r4, r0, r4
 8001c38:	9402      	str	r4, [sp, #8]
 8001c3a:	6a24      	ldr	r4, [r4, #32]
 8001c3c:	9603      	str	r6, [sp, #12]
 8001c3e:	0026      	movs	r6, r4
 8001c40:	9c03      	ldr	r4, [sp, #12]
 8001c42:	43a6      	bics	r6, r4
 8001c44:	0034      	movs	r4, r6
 8001c46:	690e      	ldr	r6, [r1, #16]
 8001c48:	40ae      	lsls	r6, r5
 8001c4a:	4326      	orrs	r6, r4
 8001c4c:	9c02      	ldr	r4, [sp, #8]
 8001c4e:	6226      	str	r6, [r4, #32]
 8001c50:	e001      	b.n	8001c56 <HAL_GPIO_Init+0x9e>
 8001c52:	2a03      	cmp	r2, #3
 8001c54:	d1df      	bne.n	8001c16 <HAL_GPIO_Init+0x5e>
 8001c56:	40ba      	lsls	r2, r7
 8001c58:	6804      	ldr	r4, [r0, #0]
 8001c5a:	9d01      	ldr	r5, [sp, #4]
 8001c5c:	4025      	ands	r5, r4
 8001c5e:	432a      	orrs	r2, r5
 8001c60:	24c0      	movs	r4, #192	@ 0xc0
 8001c62:	6002      	str	r2, [r0, #0]
 8001c64:	4662      	mov	r2, ip
 8001c66:	02a4      	lsls	r4, r4, #10
 8001c68:	4222      	tst	r2, r4
 8001c6a:	d04f      	beq.n	8001d0c <HAL_GPIO_Init+0x154>
 8001c6c:	2501      	movs	r5, #1
 8001c6e:	4a28      	ldr	r2, [pc, #160]	@ (8001d10 <HAL_GPIO_Init+0x158>)
 8001c70:	2790      	movs	r7, #144	@ 0x90
 8001c72:	6994      	ldr	r4, [r2, #24]
 8001c74:	05ff      	lsls	r7, r7, #23
 8001c76:	432c      	orrs	r4, r5
 8001c78:	6194      	str	r4, [r2, #24]
 8001c7a:	6992      	ldr	r2, [r2, #24]
 8001c7c:	089c      	lsrs	r4, r3, #2
 8001c7e:	402a      	ands	r2, r5
 8001c80:	9205      	str	r2, [sp, #20]
 8001c82:	9a05      	ldr	r2, [sp, #20]
 8001c84:	4a23      	ldr	r2, [pc, #140]	@ (8001d14 <HAL_GPIO_Init+0x15c>)
 8001c86:	00a4      	lsls	r4, r4, #2
 8001c88:	18a4      	adds	r4, r4, r2
 8001c8a:	220f      	movs	r2, #15
 8001c8c:	3502      	adds	r5, #2
 8001c8e:	401d      	ands	r5, r3
 8001c90:	00ad      	lsls	r5, r5, #2
 8001c92:	40aa      	lsls	r2, r5
 8001c94:	68a6      	ldr	r6, [r4, #8]
 8001c96:	4396      	bics	r6, r2
 8001c98:	2200      	movs	r2, #0
 8001c9a:	42b8      	cmp	r0, r7
 8001c9c:	d00c      	beq.n	8001cb8 <HAL_GPIO_Init+0x100>
 8001c9e:	4f1e      	ldr	r7, [pc, #120]	@ (8001d18 <HAL_GPIO_Init+0x160>)
 8001ca0:	3201      	adds	r2, #1
 8001ca2:	42b8      	cmp	r0, r7
 8001ca4:	d008      	beq.n	8001cb8 <HAL_GPIO_Init+0x100>
 8001ca6:	4f1d      	ldr	r7, [pc, #116]	@ (8001d1c <HAL_GPIO_Init+0x164>)
 8001ca8:	3201      	adds	r2, #1
 8001caa:	42b8      	cmp	r0, r7
 8001cac:	d004      	beq.n	8001cb8 <HAL_GPIO_Init+0x100>
 8001cae:	4f1c      	ldr	r7, [pc, #112]	@ (8001d20 <HAL_GPIO_Init+0x168>)
 8001cb0:	3203      	adds	r2, #3
 8001cb2:	42b8      	cmp	r0, r7
 8001cb4:	d100      	bne.n	8001cb8 <HAL_GPIO_Init+0x100>
 8001cb6:	3a02      	subs	r2, #2
 8001cb8:	40aa      	lsls	r2, r5
 8001cba:	4667      	mov	r7, ip
 8001cbc:	4332      	orrs	r2, r6
 8001cbe:	60a2      	str	r2, [r4, #8]
 8001cc0:	4a18      	ldr	r2, [pc, #96]	@ (8001d24 <HAL_GPIO_Init+0x16c>)
 8001cc2:	9c00      	ldr	r4, [sp, #0]
 8001cc4:	6896      	ldr	r6, [r2, #8]
 8001cc6:	9d00      	ldr	r5, [sp, #0]
 8001cc8:	43e4      	mvns	r4, r4
 8001cca:	4335      	orrs	r5, r6
 8001ccc:	02ff      	lsls	r7, r7, #11
 8001cce:	d401      	bmi.n	8001cd4 <HAL_GPIO_Init+0x11c>
 8001cd0:	0035      	movs	r5, r6
 8001cd2:	4025      	ands	r5, r4
 8001cd4:	4667      	mov	r7, ip
 8001cd6:	6095      	str	r5, [r2, #8]
 8001cd8:	68d6      	ldr	r6, [r2, #12]
 8001cda:	9d00      	ldr	r5, [sp, #0]
 8001cdc:	4335      	orrs	r5, r6
 8001cde:	02bf      	lsls	r7, r7, #10
 8001ce0:	d401      	bmi.n	8001ce6 <HAL_GPIO_Init+0x12e>
 8001ce2:	0035      	movs	r5, r6
 8001ce4:	4025      	ands	r5, r4
 8001ce6:	4667      	mov	r7, ip
 8001ce8:	60d5      	str	r5, [r2, #12]
 8001cea:	6856      	ldr	r6, [r2, #4]
 8001cec:	9d00      	ldr	r5, [sp, #0]
 8001cee:	4335      	orrs	r5, r6
 8001cf0:	03bf      	lsls	r7, r7, #14
 8001cf2:	d401      	bmi.n	8001cf8 <HAL_GPIO_Init+0x140>
 8001cf4:	0035      	movs	r5, r6
 8001cf6:	4025      	ands	r5, r4
 8001cf8:	4667      	mov	r7, ip
 8001cfa:	6055      	str	r5, [r2, #4]
 8001cfc:	6815      	ldr	r5, [r2, #0]
 8001cfe:	9e00      	ldr	r6, [sp, #0]
 8001d00:	432e      	orrs	r6, r5
 8001d02:	03ff      	lsls	r7, r7, #15
 8001d04:	d401      	bmi.n	8001d0a <HAL_GPIO_Init+0x152>
 8001d06:	4025      	ands	r5, r4
 8001d08:	002e      	movs	r6, r5
 8001d0a:	6016      	str	r6, [r2, #0]
 8001d0c:	3301      	adds	r3, #1
 8001d0e:	e756      	b.n	8001bbe <HAL_GPIO_Init+0x6>
 8001d10:	40021000 	.word	0x40021000
 8001d14:	40010000 	.word	0x40010000
 8001d18:	48000400 	.word	0x48000400
 8001d1c:	48000800 	.word	0x48000800
 8001d20:	48000c00 	.word	0x48000c00
 8001d24:	40010400 	.word	0x40010400

08001d28 <I2C_Flush_TXDR>:
 8001d28:	6803      	ldr	r3, [r0, #0]
 8001d2a:	699a      	ldr	r2, [r3, #24]
 8001d2c:	0792      	lsls	r2, r2, #30
 8001d2e:	d501      	bpl.n	8001d34 <I2C_Flush_TXDR+0xc>
 8001d30:	2200      	movs	r2, #0
 8001d32:	629a      	str	r2, [r3, #40]	@ 0x28
 8001d34:	2201      	movs	r2, #1
 8001d36:	6999      	ldr	r1, [r3, #24]
 8001d38:	4211      	tst	r1, r2
 8001d3a:	d102      	bne.n	8001d42 <I2C_Flush_TXDR+0x1a>
 8001d3c:	6999      	ldr	r1, [r3, #24]
 8001d3e:	430a      	orrs	r2, r1
 8001d40:	619a      	str	r2, [r3, #24]
 8001d42:	4770      	bx	lr

08001d44 <I2C_TransferConfig>:
 8001d44:	b530      	push	{r4, r5, lr}
 8001d46:	9c03      	ldr	r4, [sp, #12]
 8001d48:	6800      	ldr	r0, [r0, #0]
 8001d4a:	4323      	orrs	r3, r4
 8001d4c:	0412      	lsls	r2, r2, #16
 8001d4e:	0589      	lsls	r1, r1, #22
 8001d50:	431a      	orrs	r2, r3
 8001d52:	0d89      	lsrs	r1, r1, #22
 8001d54:	4b05      	ldr	r3, [pc, #20]	@ (8001d6c <I2C_TransferConfig+0x28>)
 8001d56:	6845      	ldr	r5, [r0, #4]
 8001d58:	430a      	orrs	r2, r1
 8001d5a:	0d64      	lsrs	r4, r4, #21
 8001d5c:	4323      	orrs	r3, r4
 8001d5e:	0052      	lsls	r2, r2, #1
 8001d60:	439d      	bics	r5, r3
 8001d62:	0852      	lsrs	r2, r2, #1
 8001d64:	432a      	orrs	r2, r5
 8001d66:	6042      	str	r2, [r0, #4]
 8001d68:	bd30      	pop	{r4, r5, pc}
 8001d6a:	46c0      	nop			@ (mov r8, r8)
 8001d6c:	03ff63ff 	.word	0x03ff63ff

08001d70 <I2C_IsErrorOccurred>:
 8001d70:	b5f7      	push	{r0, r1, r2, r4, r5, r6, r7, lr}
 8001d72:	0015      	movs	r5, r2
 8001d74:	6802      	ldr	r2, [r0, #0]
 8001d76:	000e      	movs	r6, r1
 8001d78:	6991      	ldr	r1, [r2, #24]
 8001d7a:	2310      	movs	r3, #16
 8001d7c:	000f      	movs	r7, r1
 8001d7e:	0004      	movs	r4, r0
 8001d80:	401f      	ands	r7, r3
 8001d82:	2000      	movs	r0, #0
 8001d84:	4219      	tst	r1, r3
 8001d86:	d00d      	beq.n	8001da4 <I2C_IsErrorOccurred+0x34>
 8001d88:	0007      	movs	r7, r0
 8001d8a:	61d3      	str	r3, [r2, #28]
 8001d8c:	9001      	str	r0, [sp, #4]
 8001d8e:	6823      	ldr	r3, [r4, #0]
 8001d90:	2120      	movs	r1, #32
 8001d92:	699a      	ldr	r2, [r3, #24]
 8001d94:	420a      	tst	r2, r1
 8001d96:	d15f      	bne.n	8001e58 <I2C_IsErrorOccurred+0xe8>
 8001d98:	2f00      	cmp	r7, #0
 8001d9a:	d031      	beq.n	8001e00 <I2C_IsErrorOccurred+0x90>
 8001d9c:	2704      	movs	r7, #4
 8001d9e:	2001      	movs	r0, #1
 8001da0:	9b01      	ldr	r3, [sp, #4]
 8001da2:	431f      	orrs	r7, r3
 8001da4:	2280      	movs	r2, #128	@ 0x80
 8001da6:	6825      	ldr	r5, [r4, #0]
 8001da8:	0052      	lsls	r2, r2, #1
 8001daa:	69ab      	ldr	r3, [r5, #24]
 8001dac:	4213      	tst	r3, r2
 8001dae:	d002      	beq.n	8001db6 <I2C_IsErrorOccurred+0x46>
 8001db0:	2001      	movs	r0, #1
 8001db2:	61ea      	str	r2, [r5, #28]
 8001db4:	4307      	orrs	r7, r0
 8001db6:	2280      	movs	r2, #128	@ 0x80
 8001db8:	00d2      	lsls	r2, r2, #3
 8001dba:	4213      	tst	r3, r2
 8001dbc:	d003      	beq.n	8001dc6 <I2C_IsErrorOccurred+0x56>
 8001dbe:	2108      	movs	r1, #8
 8001dc0:	2001      	movs	r0, #1
 8001dc2:	430f      	orrs	r7, r1
 8001dc4:	61ea      	str	r2, [r5, #28]
 8001dc6:	2280      	movs	r2, #128	@ 0x80
 8001dc8:	0092      	lsls	r2, r2, #2
 8001dca:	4213      	tst	r3, r2
 8001dcc:	d049      	beq.n	8001e62 <I2C_IsErrorOccurred+0xf2>
 8001dce:	2302      	movs	r3, #2
 8001dd0:	61ea      	str	r2, [r5, #28]
 8001dd2:	431f      	orrs	r7, r3
 8001dd4:	0020      	movs	r0, r4
 8001dd6:	f7ff ffa7 	bl	8001d28 <I2C_Flush_TXDR>
 8001dda:	686b      	ldr	r3, [r5, #4]
 8001ddc:	4a22      	ldr	r2, [pc, #136]	@ (8001e68 <I2C_IsErrorOccurred+0xf8>)
 8001dde:	2001      	movs	r0, #1
 8001de0:	4013      	ands	r3, r2
 8001de2:	606b      	str	r3, [r5, #4]
 8001de4:	6c63      	ldr	r3, [r4, #68]	@ 0x44
 8001de6:	2220      	movs	r2, #32
 8001de8:	433b      	orrs	r3, r7
 8001dea:	6463      	str	r3, [r4, #68]	@ 0x44
 8001dec:	0023      	movs	r3, r4
 8001dee:	3341      	adds	r3, #65	@ 0x41
 8001df0:	701a      	strb	r2, [r3, #0]
 8001df2:	0022      	movs	r2, r4
 8001df4:	2300      	movs	r3, #0
 8001df6:	3242      	adds	r2, #66	@ 0x42
 8001df8:	3440      	adds	r4, #64	@ 0x40
 8001dfa:	7013      	strb	r3, [r2, #0]
 8001dfc:	7023      	strb	r3, [r4, #0]
 8001dfe:	e032      	b.n	8001e66 <I2C_IsErrorOccurred+0xf6>
 8001e00:	1c72      	adds	r2, r6, #1
 8001e02:	d0c5      	beq.n	8001d90 <I2C_IsErrorOccurred+0x20>
 8001e04:	f7ff fdca 	bl	800199c <HAL_GetTick>
 8001e08:	1b40      	subs	r0, r0, r5
 8001e0a:	42b0      	cmp	r0, r6
 8001e0c:	d801      	bhi.n	8001e12 <I2C_IsErrorOccurred+0xa2>
 8001e0e:	2e00      	cmp	r6, #0
 8001e10:	d1bd      	bne.n	8001d8e <I2C_IsErrorOccurred+0x1e>
 8001e12:	0022      	movs	r2, r4
 8001e14:	6823      	ldr	r3, [r4, #0]
 8001e16:	3242      	adds	r2, #66	@ 0x42
 8001e18:	6858      	ldr	r0, [r3, #4]
 8001e1a:	7811      	ldrb	r1, [r2, #0]
 8001e1c:	699a      	ldr	r2, [r3, #24]
 8001e1e:	b2c9      	uxtb	r1, r1
 8001e20:	0412      	lsls	r2, r2, #16
 8001e22:	d50b      	bpl.n	8001e3c <I2C_IsErrorOccurred+0xcc>
 8001e24:	2280      	movs	r2, #128	@ 0x80
 8001e26:	01d2      	lsls	r2, r2, #7
 8001e28:	4210      	tst	r0, r2
 8001e2a:	d107      	bne.n	8001e3c <I2C_IsErrorOccurred+0xcc>
 8001e2c:	2920      	cmp	r1, #32
 8001e2e:	d005      	beq.n	8001e3c <I2C_IsErrorOccurred+0xcc>
 8001e30:	6859      	ldr	r1, [r3, #4]
 8001e32:	430a      	orrs	r2, r1
 8001e34:	605a      	str	r2, [r3, #4]
 8001e36:	f7ff fdb1 	bl	800199c <HAL_GetTick>
 8001e3a:	0005      	movs	r5, r0
 8001e3c:	2220      	movs	r2, #32
 8001e3e:	6823      	ldr	r3, [r4, #0]
 8001e40:	699b      	ldr	r3, [r3, #24]
 8001e42:	4213      	tst	r3, r2
 8001e44:	d1a3      	bne.n	8001d8e <I2C_IsErrorOccurred+0x1e>
 8001e46:	f7ff fda9 	bl	800199c <HAL_GetTick>
 8001e4a:	1b40      	subs	r0, r0, r5
 8001e4c:	2819      	cmp	r0, #25
 8001e4e:	d9f5      	bls.n	8001e3c <I2C_IsErrorOccurred+0xcc>
 8001e50:	2320      	movs	r3, #32
 8001e52:	2701      	movs	r7, #1
 8001e54:	9301      	str	r3, [sp, #4]
 8001e56:	e79a      	b.n	8001d8e <I2C_IsErrorOccurred+0x1e>
 8001e58:	2f00      	cmp	r7, #0
 8001e5a:	d19f      	bne.n	8001d9c <I2C_IsErrorOccurred+0x2c>
 8001e5c:	2220      	movs	r2, #32
 8001e5e:	61da      	str	r2, [r3, #28]
 8001e60:	e79c      	b.n	8001d9c <I2C_IsErrorOccurred+0x2c>
 8001e62:	2800      	cmp	r0, #0
 8001e64:	d1b6      	bne.n	8001dd4 <I2C_IsErrorOccurred+0x64>
 8001e66:	bdfe      	pop	{r1, r2, r3, r4, r5, r6, r7, pc}
 8001e68:	fe00e800 	.word	0xfe00e800

08001e6c <I2C_WaitOnTXISFlagUntilTimeout>:
 8001e6c:	b5f8      	push	{r3, r4, r5, r6, r7, lr}
 8001e6e:	0004      	movs	r4, r0
 8001e70:	000d      	movs	r5, r1
 8001e72:	0016      	movs	r6, r2
 8001e74:	2702      	movs	r7, #2
 8001e76:	6823      	ldr	r3, [r4, #0]
 8001e78:	699b      	ldr	r3, [r3, #24]
 8001e7a:	423b      	tst	r3, r7
 8001e7c:	d001      	beq.n	8001e82 <I2C_WaitOnTXISFlagUntilTimeout+0x16>
 8001e7e:	2000      	movs	r0, #0
 8001e80:	e021      	b.n	8001ec6 <I2C_WaitOnTXISFlagUntilTimeout+0x5a>
 8001e82:	0032      	movs	r2, r6
 8001e84:	0029      	movs	r1, r5
 8001e86:	0020      	movs	r0, r4
 8001e88:	f7ff ff72 	bl	8001d70 <I2C_IsErrorOccurred>
 8001e8c:	2800      	cmp	r0, #0
 8001e8e:	d119      	bne.n	8001ec4 <I2C_WaitOnTXISFlagUntilTimeout+0x58>
 8001e90:	1c6b      	adds	r3, r5, #1
 8001e92:	d0f0      	beq.n	8001e76 <I2C_WaitOnTXISFlagUntilTimeout+0xa>
 8001e94:	f7ff fd82 	bl	800199c <HAL_GetTick>
 8001e98:	1b80      	subs	r0, r0, r6
 8001e9a:	42a8      	cmp	r0, r5
 8001e9c:	d801      	bhi.n	8001ea2 <I2C_WaitOnTXISFlagUntilTimeout+0x36>
 8001e9e:	2d00      	cmp	r5, #0
 8001ea0:	d1e9      	bne.n	8001e76 <I2C_WaitOnTXISFlagUntilTimeout+0xa>
 8001ea2:	6823      	ldr	r3, [r4, #0]
 8001ea4:	6999      	ldr	r1, [r3, #24]
 8001ea6:	2302      	movs	r3, #2
 8001ea8:	000a      	movs	r2, r1
 8001eaa:	401a      	ands	r2, r3
 8001eac:	4219      	tst	r1, r3
 8001eae:	d1e2      	bne.n	8001e76 <I2C_WaitOnTXISFlagUntilTimeout+0xa>
 8001eb0:	2120      	movs	r1, #32
 8001eb2:	6c63      	ldr	r3, [r4, #68]	@ 0x44
 8001eb4:	430b      	orrs	r3, r1
 8001eb6:	6463      	str	r3, [r4, #68]	@ 0x44
 8001eb8:	0023      	movs	r3, r4
 8001eba:	3440      	adds	r4, #64	@ 0x40
 8001ebc:	3341      	adds	r3, #65	@ 0x41
 8001ebe:	7019      	strb	r1, [r3, #0]
 8001ec0:	705a      	strb	r2, [r3, #1]
 8001ec2:	7022      	strb	r2, [r4, #0]
 8001ec4:	2001      	movs	r0, #1
 8001ec6:	bdf8      	pop	{r3, r4, r5, r6, r7, pc}

08001ec8 <I2C_WaitOnFlagUntilTimeout>:
 8001ec8:	b5f8      	push	{r3, r4, r5, r6, r7, lr}
 8001eca:	0004      	movs	r4, r0
 8001ecc:	000d      	movs	r5, r1
 8001ece:	0017      	movs	r7, r2
 8001ed0:	001e      	movs	r6, r3
 8001ed2:	6823      	ldr	r3, [r4, #0]
 8001ed4:	699b      	ldr	r3, [r3, #24]
 8001ed6:	402b      	ands	r3, r5
 8001ed8:	1b5b      	subs	r3, r3, r5
 8001eda:	425a      	negs	r2, r3
 8001edc:	4153      	adcs	r3, r2
 8001ede:	42bb      	cmp	r3, r7
 8001ee0:	d001      	beq.n	8001ee6 <I2C_WaitOnFlagUntilTimeout+0x1e>
 8001ee2:	2000      	movs	r0, #0
 8001ee4:	e026      	b.n	8001f34 <I2C_WaitOnFlagUntilTimeout+0x6c>
 8001ee6:	0031      	movs	r1, r6
 8001ee8:	0020      	movs	r0, r4
 8001eea:	9a06      	ldr	r2, [sp, #24]
 8001eec:	f7ff ff40 	bl	8001d70 <I2C_IsErrorOccurred>
 8001ef0:	2800      	cmp	r0, #0
 8001ef2:	d11e      	bne.n	8001f32 <I2C_WaitOnFlagUntilTimeout+0x6a>
 8001ef4:	1c73      	adds	r3, r6, #1
 8001ef6:	d0ec      	beq.n	8001ed2 <I2C_WaitOnFlagUntilTimeout+0xa>
 8001ef8:	f7ff fd50 	bl	800199c <HAL_GetTick>
 8001efc:	9b06      	ldr	r3, [sp, #24]
 8001efe:	1ac0      	subs	r0, r0, r3
 8001f00:	42b0      	cmp	r0, r6
 8001f02:	d801      	bhi.n	8001f08 <I2C_WaitOnFlagUntilTimeout+0x40>
 8001f04:	2e00      	cmp	r6, #0
 8001f06:	d1e4      	bne.n	8001ed2 <I2C_WaitOnFlagUntilTimeout+0xa>
 8001f08:	6823      	ldr	r3, [r4, #0]
 8001f0a:	699b      	ldr	r3, [r3, #24]
 8001f0c:	402b      	ands	r3, r5
 8001f0e:	1b5b      	subs	r3, r3, r5
 8001f10:	425a      	negs	r2, r3
 8001f12:	4153      	adcs	r3, r2
 8001f14:	42bb      	cmp	r3, r7
 8001f16:	d1dc      	bne.n	8001ed2 <I2C_WaitOnFlagUntilTimeout+0xa>
 8001f18:	2220      	movs	r2, #32
 8001f1a:	6c63      	ldr	r3, [r4, #68]	@ 0x44
 8001f1c:	4313      	orrs	r3, r2
 8001f1e:	6463      	str	r3, [r4, #68]	@ 0x44
 8001f20:	0023      	movs	r3, r4
 8001f22:	3341      	adds	r3, #65	@ 0x41
 8001f24:	701a      	strb	r2, [r3, #0]
 8001f26:	0022      	movs	r2, r4
 8001f28:	2300      	movs	r3, #0
 8001f2a:	3242      	adds	r2, #66	@ 0x42
 8001f2c:	3440      	adds	r4, #64	@ 0x40
 8001f2e:	7013      	strb	r3, [r2, #0]
 8001f30:	7023      	strb	r3, [r4, #0]
 8001f32:	2001      	movs	r0, #1
 8001f34:	bdf8      	pop	{r3, r4, r5, r6, r7, pc}

08001f36 <I2C_WaitOnSTOPFlagUntilTimeout>:
 8001f36:	b5f8      	push	{r3, r4, r5, r6, r7, lr}
 8001f38:	0004      	movs	r4, r0
 8001f3a:	000e      	movs	r6, r1
 8001f3c:	0017      	movs	r7, r2
 8001f3e:	2520      	movs	r5, #32
 8001f40:	6823      	ldr	r3, [r4, #0]
 8001f42:	699b      	ldr	r3, [r3, #24]
 8001f44:	422b      	tst	r3, r5
 8001f46:	d001      	beq.n	8001f4c <I2C_WaitOnSTOPFlagUntilTimeout+0x16>
 8001f48:	2000      	movs	r0, #0
 8001f4a:	e01d      	b.n	8001f88 <I2C_WaitOnSTOPFlagUntilTimeout+0x52>
 8001f4c:	003a      	movs	r2, r7
 8001f4e:	0031      	movs	r1, r6
 8001f50:	0020      	movs	r0, r4
 8001f52:	f7ff ff0d 	bl	8001d70 <I2C_IsErrorOccurred>
 8001f56:	2800      	cmp	r0, #0
 8001f58:	d115      	bne.n	8001f86 <I2C_WaitOnSTOPFlagUntilTimeout+0x50>
 8001f5a:	f7ff fd1f 	bl	800199c <HAL_GetTick>
 8001f5e:	1bc0      	subs	r0, r0, r7
 8001f60:	42b0      	cmp	r0, r6
 8001f62:	d801      	bhi.n	8001f68 <I2C_WaitOnSTOPFlagUntilTimeout+0x32>
 8001f64:	2e00      	cmp	r6, #0
 8001f66:	d1eb      	bne.n	8001f40 <I2C_WaitOnSTOPFlagUntilTimeout+0xa>
 8001f68:	6823      	ldr	r3, [r4, #0]
 8001f6a:	699b      	ldr	r3, [r3, #24]
 8001f6c:	001a      	movs	r2, r3
 8001f6e:	402a      	ands	r2, r5
 8001f70:	422b      	tst	r3, r5
 8001f72:	d1e5      	bne.n	8001f40 <I2C_WaitOnSTOPFlagUntilTimeout+0xa>
 8001f74:	6c63      	ldr	r3, [r4, #68]	@ 0x44
 8001f76:	432b      	orrs	r3, r5
 8001f78:	6463      	str	r3, [r4, #68]	@ 0x44
 8001f7a:	0023      	movs	r3, r4
 8001f7c:	3440      	adds	r4, #64	@ 0x40
 8001f7e:	3341      	adds	r3, #65	@ 0x41
 8001f80:	701d      	strb	r5, [r3, #0]
 8001f82:	705a      	strb	r2, [r3, #1]
 8001f84:	7022      	strb	r2, [r4, #0]
 8001f86:	2001      	movs	r0, #1
 8001f88:	bdf8      	pop	{r3, r4, r5, r6, r7, pc}
	...

08001f8c <I2C_WaitOnRXNEFlagUntilTimeout>:
 8001f8c:	b5f7      	push	{r0, r1, r2, r4, r5, r6, r7, lr}
 8001f8e:	0005      	movs	r5, r0
 8001f90:	2400      	movs	r4, #0
 8001f92:	2704      	movs	r7, #4
 8001f94:	2620      	movs	r6, #32
 8001f96:	9100      	str	r1, [sp, #0]
 8001f98:	9201      	str	r2, [sp, #4]
 8001f9a:	682b      	ldr	r3, [r5, #0]
 8001f9c:	699b      	ldr	r3, [r3, #24]
 8001f9e:	423b      	tst	r3, r7
 8001fa0:	d101      	bne.n	8001fa6 <I2C_WaitOnRXNEFlagUntilTimeout+0x1a>
 8001fa2:	2c00      	cmp	r4, #0
 8001fa4:	d001      	beq.n	8001faa <I2C_WaitOnRXNEFlagUntilTimeout+0x1e>
 8001fa6:	0020      	movs	r0, r4
 8001fa8:	bdfe      	pop	{r1, r2, r3, r4, r5, r6, r7, pc}
 8001faa:	9a01      	ldr	r2, [sp, #4]
 8001fac:	0028      	movs	r0, r5
 8001fae:	9900      	ldr	r1, [sp, #0]
 8001fb0:	f7ff fede 	bl	8001d70 <I2C_IsErrorOccurred>
 8001fb4:	682b      	ldr	r3, [r5, #0]
 8001fb6:	0004      	movs	r4, r0
 8001fb8:	699a      	ldr	r2, [r3, #24]
 8001fba:	4232      	tst	r2, r6
 8001fbc:	d10f      	bne.n	8001fde <I2C_WaitOnRXNEFlagUntilTimeout+0x52>
 8001fbe:	1e63      	subs	r3, r4, #1
 8001fc0:	419c      	sbcs	r4, r3
 8001fc2:	b2e4      	uxtb	r4, r4
 8001fc4:	f7ff fcea 	bl	800199c <HAL_GetTick>
 8001fc8:	9b01      	ldr	r3, [sp, #4]
 8001fca:	1ac0      	subs	r0, r0, r3
 8001fcc:	9b00      	ldr	r3, [sp, #0]
 8001fce:	4298      	cmp	r0, r3
 8001fd0:	d801      	bhi.n	8001fd6 <I2C_WaitOnRXNEFlagUntilTimeout+0x4a>
 8001fd2:	2b00      	cmp	r3, #0
 8001fd4:	d1e1      	bne.n	8001f9a <I2C_WaitOnRXNEFlagUntilTimeout+0xe>
 8001fd6:	2c00      	cmp	r4, #0
 8001fd8:	d019      	beq.n	800200e <I2C_WaitOnRXNEFlagUntilTimeout+0x82>
 8001fda:	2401      	movs	r4, #1
 8001fdc:	e7dd      	b.n	8001f9a <I2C_WaitOnRXNEFlagUntilTimeout+0xe>
 8001fde:	2800      	cmp	r0, #0
 8001fe0:	d111      	bne.n	8002006 <I2C_WaitOnRXNEFlagUntilTimeout+0x7a>
 8001fe2:	699a      	ldr	r2, [r3, #24]
 8001fe4:	2210      	movs	r2, #16
 8001fe6:	6999      	ldr	r1, [r3, #24]
 8001fe8:	4211      	tst	r1, r2
 8001fea:	d00e      	beq.n	800200a <I2C_WaitOnRXNEFlagUntilTimeout+0x7e>
 8001fec:	61da      	str	r2, [r3, #28]
 8001fee:	646f      	str	r7, [r5, #68]	@ 0x44
 8001ff0:	61de      	str	r6, [r3, #28]
 8001ff2:	685a      	ldr	r2, [r3, #4]
 8001ff4:	490c      	ldr	r1, [pc, #48]	@ (8002028 <I2C_WaitOnRXNEFlagUntilTimeout+0x9c>)
 8001ff6:	400a      	ands	r2, r1
 8001ff8:	605a      	str	r2, [r3, #4]
 8001ffa:	002b      	movs	r3, r5
 8001ffc:	3341      	adds	r3, #65	@ 0x41
 8001ffe:	701e      	strb	r6, [r3, #0]
 8002000:	7058      	strb	r0, [r3, #1]
 8002002:	3b01      	subs	r3, #1
 8002004:	7018      	strb	r0, [r3, #0]
 8002006:	2401      	movs	r4, #1
 8002008:	e7dc      	b.n	8001fc4 <I2C_WaitOnRXNEFlagUntilTimeout+0x38>
 800200a:	6468      	str	r0, [r5, #68]	@ 0x44
 800200c:	e7da      	b.n	8001fc4 <I2C_WaitOnRXNEFlagUntilTimeout+0x38>
 800200e:	682b      	ldr	r3, [r5, #0]
 8002010:	699b      	ldr	r3, [r3, #24]
 8002012:	423b      	tst	r3, r7
 8002014:	d1c1      	bne.n	8001f9a <I2C_WaitOnRXNEFlagUntilTimeout+0xe>
 8002016:	6c6b      	ldr	r3, [r5, #68]	@ 0x44
 8002018:	4333      	orrs	r3, r6
 800201a:	646b      	str	r3, [r5, #68]	@ 0x44
 800201c:	002b      	movs	r3, r5
 800201e:	3341      	adds	r3, #65	@ 0x41
 8002020:	701e      	strb	r6, [r3, #0]
 8002022:	3b01      	subs	r3, #1
 8002024:	701c      	strb	r4, [r3, #0]
 8002026:	e7d8      	b.n	8001fda <I2C_WaitOnRXNEFlagUntilTimeout+0x4e>
 8002028:	fe00e800 	.word	0xfe00e800

0800202c <HAL_I2C_Init>:
 800202c:	b570      	push	{r4, r5, r6, lr}
 800202e:	0004      	movs	r4, r0
 8002030:	2001      	movs	r0, #1
 8002032:	2c00      	cmp	r4, #0
 8002034:	d04e      	beq.n	80020d4 <HAL_I2C_Init+0xa8>
 8002036:	0025      	movs	r5, r4
 8002038:	3541      	adds	r5, #65	@ 0x41
 800203a:	782b      	ldrb	r3, [r5, #0]
 800203c:	b2da      	uxtb	r2, r3
 800203e:	2b00      	cmp	r3, #0
 8002040:	d105      	bne.n	800204e <HAL_I2C_Init+0x22>
 8002042:	0023      	movs	r3, r4
 8002044:	3340      	adds	r3, #64	@ 0x40
 8002046:	0020      	movs	r0, r4
 8002048:	701a      	strb	r2, [r3, #0]
 800204a:	f7ff fb7d 	bl	8001748 <HAL_I2C_MspInit>
 800204e:	2324      	movs	r3, #36	@ 0x24
 8002050:	2101      	movs	r1, #1
 8002052:	702b      	strb	r3, [r5, #0]
 8002054:	6823      	ldr	r3, [r4, #0]
 8002056:	68e0      	ldr	r0, [r4, #12]
 8002058:	681a      	ldr	r2, [r3, #0]
 800205a:	68a6      	ldr	r6, [r4, #8]
 800205c:	438a      	bics	r2, r1
 800205e:	601a      	str	r2, [r3, #0]
 8002060:	491d      	ldr	r1, [pc, #116]	@ (80020d8 <HAL_I2C_Init+0xac>)
 8002062:	6862      	ldr	r2, [r4, #4]
 8002064:	400a      	ands	r2, r1
 8002066:	611a      	str	r2, [r3, #16]
 8002068:	689a      	ldr	r2, [r3, #8]
 800206a:	491c      	ldr	r1, [pc, #112]	@ (80020dc <HAL_I2C_Init+0xb0>)
 800206c:	400a      	ands	r2, r1
 800206e:	609a      	str	r2, [r3, #8]
 8002070:	2801      	cmp	r0, #1
 8002072:	d107      	bne.n	8002084 <HAL_I2C_Init+0x58>
 8002074:	2280      	movs	r2, #128	@ 0x80
 8002076:	0212      	lsls	r2, r2, #8
 8002078:	4332      	orrs	r2, r6
 800207a:	609a      	str	r2, [r3, #8]
 800207c:	685a      	ldr	r2, [r3, #4]
 800207e:	4818      	ldr	r0, [pc, #96]	@ (80020e0 <HAL_I2C_Init+0xb4>)
 8002080:	4002      	ands	r2, r0
 8002082:	e009      	b.n	8002098 <HAL_I2C_Init+0x6c>
 8002084:	2284      	movs	r2, #132	@ 0x84
 8002086:	0212      	lsls	r2, r2, #8
 8002088:	4332      	orrs	r2, r6
 800208a:	609a      	str	r2, [r3, #8]
 800208c:	2802      	cmp	r0, #2
 800208e:	d1f5      	bne.n	800207c <HAL_I2C_Init+0x50>
 8002090:	2280      	movs	r2, #128	@ 0x80
 8002092:	6858      	ldr	r0, [r3, #4]
 8002094:	0112      	lsls	r2, r2, #4
 8002096:	4302      	orrs	r2, r0
 8002098:	605a      	str	r2, [r3, #4]
 800209a:	6858      	ldr	r0, [r3, #4]
 800209c:	4a11      	ldr	r2, [pc, #68]	@ (80020e4 <HAL_I2C_Init+0xb8>)
 800209e:	4302      	orrs	r2, r0
 80020a0:	605a      	str	r2, [r3, #4]
 80020a2:	68da      	ldr	r2, [r3, #12]
 80020a4:	2000      	movs	r0, #0
 80020a6:	400a      	ands	r2, r1
 80020a8:	60da      	str	r2, [r3, #12]
 80020aa:	6961      	ldr	r1, [r4, #20]
 80020ac:	6922      	ldr	r2, [r4, #16]
 80020ae:	430a      	orrs	r2, r1
 80020b0:	69a1      	ldr	r1, [r4, #24]
 80020b2:	0209      	lsls	r1, r1, #8
 80020b4:	430a      	orrs	r2, r1
 80020b6:	60da      	str	r2, [r3, #12]
 80020b8:	6a21      	ldr	r1, [r4, #32]
 80020ba:	69e2      	ldr	r2, [r4, #28]
 80020bc:	430a      	orrs	r2, r1
 80020be:	601a      	str	r2, [r3, #0]
 80020c0:	2201      	movs	r2, #1
 80020c2:	6819      	ldr	r1, [r3, #0]
 80020c4:	430a      	orrs	r2, r1
 80020c6:	601a      	str	r2, [r3, #0]
 80020c8:	2320      	movs	r3, #32
 80020ca:	6460      	str	r0, [r4, #68]	@ 0x44
 80020cc:	702b      	strb	r3, [r5, #0]
 80020ce:	6320      	str	r0, [r4, #48]	@ 0x30
 80020d0:	3442      	adds	r4, #66	@ 0x42
 80020d2:	7020      	strb	r0, [r4, #0]
 80020d4:	bd70      	pop	{r4, r5, r6, pc}
 80020d6:	46c0      	nop			@ (mov r8, r8)
 80020d8:	f0ffffff 	.word	0xf0ffffff
 80020dc:	ffff7fff 	.word	0xffff7fff
 80020e0:	fffff7ff 	.word	0xfffff7ff
 80020e4:	02008000 	.word	0x02008000

080020e8 <HAL_I2C_Master_Transmit>:
 80020e8:	b5f0      	push	{r4, r5, r6, r7, lr}
 80020ea:	0006      	movs	r6, r0
 80020ec:	b085      	sub	sp, #20
 80020ee:	9202      	str	r2, [sp, #8]
 80020f0:	9303      	str	r3, [sp, #12]
 80020f2:	3641      	adds	r6, #65	@ 0x41
 80020f4:	7833      	ldrb	r3, [r6, #0]
 80020f6:	0004      	movs	r4, r0
 80020f8:	000f      	movs	r7, r1
 80020fa:	2002      	movs	r0, #2
 80020fc:	2b20      	cmp	r3, #32
 80020fe:	d114      	bne.n	800212a <HAL_I2C_Master_Transmit+0x42>
 8002100:	0023      	movs	r3, r4
 8002102:	3340      	adds	r3, #64	@ 0x40
 8002104:	781a      	ldrb	r2, [r3, #0]
 8002106:	2a01      	cmp	r2, #1
 8002108:	d00f      	beq.n	800212a <HAL_I2C_Master_Transmit+0x42>
 800210a:	2201      	movs	r2, #1
 800210c:	701a      	strb	r2, [r3, #0]
 800210e:	f7ff fc45 	bl	800199c <HAL_GetTick>
 8002112:	2180      	movs	r1, #128	@ 0x80
 8002114:	0005      	movs	r5, r0
 8002116:	9000      	str	r0, [sp, #0]
 8002118:	2319      	movs	r3, #25
 800211a:	2201      	movs	r2, #1
 800211c:	0020      	movs	r0, r4
 800211e:	0209      	lsls	r1, r1, #8
 8002120:	f7ff fed2 	bl	8001ec8 <I2C_WaitOnFlagUntilTimeout>
 8002124:	2800      	cmp	r0, #0
 8002126:	d002      	beq.n	800212e <HAL_I2C_Master_Transmit+0x46>
 8002128:	2001      	movs	r0, #1
 800212a:	b005      	add	sp, #20
 800212c:	bdf0      	pop	{r4, r5, r6, r7, pc}
 800212e:	2321      	movs	r3, #33	@ 0x21
 8002130:	7033      	strb	r3, [r6, #0]
 8002132:	0023      	movs	r3, r4
 8002134:	2210      	movs	r2, #16
 8002136:	3342      	adds	r3, #66	@ 0x42
 8002138:	701a      	strb	r2, [r3, #0]
 800213a:	9b02      	ldr	r3, [sp, #8]
 800213c:	6460      	str	r0, [r4, #68]	@ 0x44
 800213e:	6263      	str	r3, [r4, #36]	@ 0x24
 8002140:	9b03      	ldr	r3, [sp, #12]
 8002142:	4939      	ldr	r1, [pc, #228]	@ (8002228 <HAL_I2C_Master_Transmit+0x140>)
 8002144:	8563      	strh	r3, [r4, #42]	@ 0x2a
 8002146:	8d63      	ldrh	r3, [r4, #42]	@ 0x2a
 8002148:	6360      	str	r0, [r4, #52]	@ 0x34
 800214a:	2bff      	cmp	r3, #255	@ 0xff
 800214c:	d930      	bls.n	80021b0 <HAL_I2C_Master_Transmit+0xc8>
 800214e:	2380      	movs	r3, #128	@ 0x80
 8002150:	32ef      	adds	r2, #239	@ 0xef
 8002152:	8522      	strh	r2, [r4, #40]	@ 0x28
 8002154:	045b      	lsls	r3, r3, #17
 8002156:	9e02      	ldr	r6, [sp, #8]
 8002158:	6820      	ldr	r0, [r4, #0]
 800215a:	7836      	ldrb	r6, [r6, #0]
 800215c:	3a01      	subs	r2, #1
 800215e:	6286      	str	r6, [r0, #40]	@ 0x28
 8002160:	9802      	ldr	r0, [sp, #8]
 8002162:	b292      	uxth	r2, r2
 8002164:	3001      	adds	r0, #1
 8002166:	6260      	str	r0, [r4, #36]	@ 0x24
 8002168:	8d60      	ldrh	r0, [r4, #42]	@ 0x2a
 800216a:	8522      	strh	r2, [r4, #40]	@ 0x28
 800216c:	3801      	subs	r0, #1
 800216e:	b280      	uxth	r0, r0
 8002170:	3201      	adds	r2, #1
 8002172:	8560      	strh	r0, [r4, #42]	@ 0x2a
 8002174:	b2d2      	uxtb	r2, r2
 8002176:	9100      	str	r1, [sp, #0]
 8002178:	0039      	movs	r1, r7
 800217a:	0020      	movs	r0, r4
 800217c:	f7ff fde2 	bl	8001d44 <I2C_TransferConfig>
 8002180:	8d63      	ldrh	r3, [r4, #42]	@ 0x2a
 8002182:	002a      	movs	r2, r5
 8002184:	0020      	movs	r0, r4
 8002186:	990a      	ldr	r1, [sp, #40]	@ 0x28
 8002188:	2b00      	cmp	r3, #0
 800218a:	d11d      	bne.n	80021c8 <HAL_I2C_Master_Transmit+0xe0>
 800218c:	f7ff fed3 	bl	8001f36 <I2C_WaitOnSTOPFlagUntilTimeout>
 8002190:	2800      	cmp	r0, #0
 8002192:	d1c9      	bne.n	8002128 <HAL_I2C_Master_Transmit+0x40>
 8002194:	2120      	movs	r1, #32
 8002196:	6823      	ldr	r3, [r4, #0]
 8002198:	4d24      	ldr	r5, [pc, #144]	@ (800222c <HAL_I2C_Master_Transmit+0x144>)
 800219a:	61d9      	str	r1, [r3, #28]
 800219c:	685a      	ldr	r2, [r3, #4]
 800219e:	402a      	ands	r2, r5
 80021a0:	605a      	str	r2, [r3, #4]
 80021a2:	0023      	movs	r3, r4
 80021a4:	3440      	adds	r4, #64	@ 0x40
 80021a6:	3341      	adds	r3, #65	@ 0x41
 80021a8:	7019      	strb	r1, [r3, #0]
 80021aa:	7058      	strb	r0, [r3, #1]
 80021ac:	7020      	strb	r0, [r4, #0]
 80021ae:	e7bc      	b.n	800212a <HAL_I2C_Master_Transmit+0x42>
 80021b0:	8d62      	ldrh	r2, [r4, #42]	@ 0x2a
 80021b2:	b292      	uxth	r2, r2
 80021b4:	8522      	strh	r2, [r4, #40]	@ 0x28
 80021b6:	2a00      	cmp	r2, #0
 80021b8:	d002      	beq.n	80021c0 <HAL_I2C_Master_Transmit+0xd8>
 80021ba:	2380      	movs	r3, #128	@ 0x80
 80021bc:	049b      	lsls	r3, r3, #18
 80021be:	e7ca      	b.n	8002156 <HAL_I2C_Master_Transmit+0x6e>
 80021c0:	9100      	str	r1, [sp, #0]
 80021c2:	2380      	movs	r3, #128	@ 0x80
 80021c4:	049b      	lsls	r3, r3, #18
 80021c6:	e7d7      	b.n	8002178 <HAL_I2C_Master_Transmit+0x90>
 80021c8:	f7ff fe50 	bl	8001e6c <I2C_WaitOnTXISFlagUntilTimeout>
 80021cc:	2800      	cmp	r0, #0
 80021ce:	d1ab      	bne.n	8002128 <HAL_I2C_Master_Transmit+0x40>
 80021d0:	6a63      	ldr	r3, [r4, #36]	@ 0x24
 80021d2:	6822      	ldr	r2, [r4, #0]
 80021d4:	7819      	ldrb	r1, [r3, #0]
 80021d6:	3301      	adds	r3, #1
 80021d8:	6291      	str	r1, [r2, #40]	@ 0x28
 80021da:	6263      	str	r3, [r4, #36]	@ 0x24
 80021dc:	8d63      	ldrh	r3, [r4, #42]	@ 0x2a
 80021de:	8d22      	ldrh	r2, [r4, #40]	@ 0x28
 80021e0:	3b01      	subs	r3, #1
 80021e2:	b29b      	uxth	r3, r3
 80021e4:	8563      	strh	r3, [r4, #42]	@ 0x2a
 80021e6:	3a01      	subs	r2, #1
 80021e8:	8d63      	ldrh	r3, [r4, #42]	@ 0x2a
 80021ea:	b292      	uxth	r2, r2
 80021ec:	8522      	strh	r2, [r4, #40]	@ 0x28
 80021ee:	2b00      	cmp	r3, #0
 80021f0:	d0c6      	beq.n	8002180 <HAL_I2C_Master_Transmit+0x98>
 80021f2:	2a00      	cmp	r2, #0
 80021f4:	d1c4      	bne.n	8002180 <HAL_I2C_Master_Transmit+0x98>
 80021f6:	2180      	movs	r1, #128	@ 0x80
 80021f8:	0020      	movs	r0, r4
 80021fa:	9b0a      	ldr	r3, [sp, #40]	@ 0x28
 80021fc:	9500      	str	r5, [sp, #0]
 80021fe:	f7ff fe63 	bl	8001ec8 <I2C_WaitOnFlagUntilTimeout>
 8002202:	2800      	cmp	r0, #0
 8002204:	d000      	beq.n	8002208 <HAL_I2C_Master_Transmit+0x120>
 8002206:	e78f      	b.n	8002128 <HAL_I2C_Master_Transmit+0x40>
 8002208:	8d63      	ldrh	r3, [r4, #42]	@ 0x2a
 800220a:	2bff      	cmp	r3, #255	@ 0xff
 800220c:	d905      	bls.n	800221a <HAL_I2C_Master_Transmit+0x132>
 800220e:	22ff      	movs	r2, #255	@ 0xff
 8002210:	2380      	movs	r3, #128	@ 0x80
 8002212:	8522      	strh	r2, [r4, #40]	@ 0x28
 8002214:	045b      	lsls	r3, r3, #17
 8002216:	9000      	str	r0, [sp, #0]
 8002218:	e7ae      	b.n	8002178 <HAL_I2C_Master_Transmit+0x90>
 800221a:	8d62      	ldrh	r2, [r4, #42]	@ 0x2a
 800221c:	b292      	uxth	r2, r2
 800221e:	8522      	strh	r2, [r4, #40]	@ 0x28
 8002220:	b2d2      	uxtb	r2, r2
 8002222:	9000      	str	r0, [sp, #0]
 8002224:	e7cd      	b.n	80021c2 <HAL_I2C_Master_Transmit+0xda>
 8002226:	46c0      	nop			@ (mov r8, r8)
 8002228:	80002000 	.word	0x80002000
 800222c:	fe00e800 	.word	0xfe00e800

08002230 <HAL_I2C_Master_Receive>:
 8002230:	b5f0      	push	{r4, r5, r6, r7, lr}
 8002232:	0007      	movs	r7, r0
 8002234:	b087      	sub	sp, #28
 8002236:	9103      	str	r1, [sp, #12]
 8002238:	9204      	str	r2, [sp, #16]
 800223a:	9305      	str	r3, [sp, #20]
 800223c:	3741      	adds	r7, #65	@ 0x41
 800223e:	783b      	ldrb	r3, [r7, #0]
 8002240:	0004      	movs	r4, r0
 8002242:	2002      	movs	r0, #2
 8002244:	2b20      	cmp	r3, #32
 8002246:	d114      	bne.n	8002272 <HAL_I2C_Master_Receive+0x42>
 8002248:	0023      	movs	r3, r4
 800224a:	3340      	adds	r3, #64	@ 0x40
 800224c:	781a      	ldrb	r2, [r3, #0]
 800224e:	2a01      	cmp	r2, #1
 8002250:	d00f      	beq.n	8002272 <HAL_I2C_Master_Receive+0x42>
 8002252:	2601      	movs	r6, #1
 8002254:	701e      	strb	r6, [r3, #0]
 8002256:	f7ff fba1 	bl	800199c <HAL_GetTick>
 800225a:	2180      	movs	r1, #128	@ 0x80
 800225c:	0005      	movs	r5, r0
 800225e:	9000      	str	r0, [sp, #0]
 8002260:	2319      	movs	r3, #25
 8002262:	0032      	movs	r2, r6
 8002264:	0020      	movs	r0, r4
 8002266:	0209      	lsls	r1, r1, #8
 8002268:	f7ff fe2e 	bl	8001ec8 <I2C_WaitOnFlagUntilTimeout>
 800226c:	2800      	cmp	r0, #0
 800226e:	d002      	beq.n	8002276 <HAL_I2C_Master_Receive+0x46>
 8002270:	2001      	movs	r0, #1
 8002272:	b007      	add	sp, #28
 8002274:	bdf0      	pop	{r4, r5, r6, r7, pc}
 8002276:	2322      	movs	r3, #34	@ 0x22
 8002278:	703b      	strb	r3, [r7, #0]
 800227a:	0027      	movs	r7, r4
 800227c:	3b12      	subs	r3, #18
 800227e:	3742      	adds	r7, #66	@ 0x42
 8002280:	703b      	strb	r3, [r7, #0]
 8002282:	9b04      	ldr	r3, [sp, #16]
 8002284:	6460      	str	r0, [r4, #68]	@ 0x44
 8002286:	6263      	str	r3, [r4, #36]	@ 0x24
 8002288:	9b05      	ldr	r3, [sp, #20]
 800228a:	6360      	str	r0, [r4, #52]	@ 0x34
 800228c:	8563      	strh	r3, [r4, #42]	@ 0x2a
 800228e:	8d62      	ldrh	r2, [r4, #42]	@ 0x2a
 8002290:	4b2d      	ldr	r3, [pc, #180]	@ (8002348 <HAL_I2C_Master_Receive+0x118>)
 8002292:	2aff      	cmp	r2, #255	@ 0xff
 8002294:	d920      	bls.n	80022d8 <HAL_I2C_Master_Receive+0xa8>
 8002296:	8526      	strh	r6, [r4, #40]	@ 0x28
 8002298:	9300      	str	r3, [sp, #0]
 800229a:	2380      	movs	r3, #128	@ 0x80
 800229c:	0032      	movs	r2, r6
 800229e:	045b      	lsls	r3, r3, #17
 80022a0:	0020      	movs	r0, r4
 80022a2:	9903      	ldr	r1, [sp, #12]
 80022a4:	f7ff fd4e 	bl	8001d44 <I2C_TransferConfig>
 80022a8:	8d63      	ldrh	r3, [r4, #42]	@ 0x2a
 80022aa:	002a      	movs	r2, r5
 80022ac:	0020      	movs	r0, r4
 80022ae:	990c      	ldr	r1, [sp, #48]	@ 0x30
 80022b0:	2b00      	cmp	r3, #0
 80022b2:	d119      	bne.n	80022e8 <HAL_I2C_Master_Receive+0xb8>
 80022b4:	f7ff fe3f 	bl	8001f36 <I2C_WaitOnSTOPFlagUntilTimeout>
 80022b8:	2800      	cmp	r0, #0
 80022ba:	d1d9      	bne.n	8002270 <HAL_I2C_Master_Receive+0x40>
 80022bc:	2120      	movs	r1, #32
 80022be:	6823      	ldr	r3, [r4, #0]
 80022c0:	4d22      	ldr	r5, [pc, #136]	@ (800234c <HAL_I2C_Master_Receive+0x11c>)
 80022c2:	61d9      	str	r1, [r3, #28]
 80022c4:	685a      	ldr	r2, [r3, #4]
 80022c6:	402a      	ands	r2, r5
 80022c8:	605a      	str	r2, [r3, #4]
 80022ca:	0023      	movs	r3, r4
 80022cc:	3440      	adds	r4, #64	@ 0x40
 80022ce:	3341      	adds	r3, #65	@ 0x41
 80022d0:	7019      	strb	r1, [r3, #0]
 80022d2:	7038      	strb	r0, [r7, #0]
 80022d4:	7020      	strb	r0, [r4, #0]
 80022d6:	e7cc      	b.n	8002272 <HAL_I2C_Master_Receive+0x42>
 80022d8:	8d62      	ldrh	r2, [r4, #42]	@ 0x2a
 80022da:	b292      	uxth	r2, r2
 80022dc:	8522      	strh	r2, [r4, #40]	@ 0x28
 80022de:	b2d2      	uxtb	r2, r2
 80022e0:	9300      	str	r3, [sp, #0]
 80022e2:	2380      	movs	r3, #128	@ 0x80
 80022e4:	049b      	lsls	r3, r3, #18
 80022e6:	e7db      	b.n	80022a0 <HAL_I2C_Master_Receive+0x70>
 80022e8:	f7ff fe50 	bl	8001f8c <I2C_WaitOnRXNEFlagUntilTimeout>
 80022ec:	2800      	cmp	r0, #0
 80022ee:	d1bf      	bne.n	8002270 <HAL_I2C_Master_Receive+0x40>
 80022f0:	6823      	ldr	r3, [r4, #0]
 80022f2:	6a5a      	ldr	r2, [r3, #36]	@ 0x24
 80022f4:	6a63      	ldr	r3, [r4, #36]	@ 0x24
 80022f6:	701a      	strb	r2, [r3, #0]
 80022f8:	6a63      	ldr	r3, [r4, #36]	@ 0x24
 80022fa:	8d22      	ldrh	r2, [r4, #40]	@ 0x28
 80022fc:	3301      	adds	r3, #1
 80022fe:	6263      	str	r3, [r4, #36]	@ 0x24
 8002300:	8d63      	ldrh	r3, [r4, #42]	@ 0x2a
 8002302:	3a01      	subs	r2, #1
 8002304:	3b01      	subs	r3, #1
 8002306:	b29b      	uxth	r3, r3
 8002308:	8563      	strh	r3, [r4, #42]	@ 0x2a
 800230a:	8d63      	ldrh	r3, [r4, #42]	@ 0x2a
 800230c:	b292      	uxth	r2, r2
 800230e:	8522      	strh	r2, [r4, #40]	@ 0x28
 8002310:	2b00      	cmp	r3, #0
 8002312:	d0c9      	beq.n	80022a8 <HAL_I2C_Master_Receive+0x78>
 8002314:	2a00      	cmp	r2, #0
 8002316:	d1c7      	bne.n	80022a8 <HAL_I2C_Master_Receive+0x78>
 8002318:	2180      	movs	r1, #128	@ 0x80
 800231a:	0020      	movs	r0, r4
 800231c:	9b0c      	ldr	r3, [sp, #48]	@ 0x30
 800231e:	9500      	str	r5, [sp, #0]
 8002320:	f7ff fdd2 	bl	8001ec8 <I2C_WaitOnFlagUntilTimeout>
 8002324:	2800      	cmp	r0, #0
 8002326:	d1a3      	bne.n	8002270 <HAL_I2C_Master_Receive+0x40>
 8002328:	8d63      	ldrh	r3, [r4, #42]	@ 0x2a
 800232a:	2bff      	cmp	r3, #255	@ 0xff
 800232c:	d905      	bls.n	800233a <HAL_I2C_Master_Receive+0x10a>
 800232e:	22ff      	movs	r2, #255	@ 0xff
 8002330:	2380      	movs	r3, #128	@ 0x80
 8002332:	8522      	strh	r2, [r4, #40]	@ 0x28
 8002334:	045b      	lsls	r3, r3, #17
 8002336:	9000      	str	r0, [sp, #0]
 8002338:	e7b2      	b.n	80022a0 <HAL_I2C_Master_Receive+0x70>
 800233a:	8d62      	ldrh	r2, [r4, #42]	@ 0x2a
 800233c:	b292      	uxth	r2, r2
 800233e:	8522      	strh	r2, [r4, #40]	@ 0x28
 8002340:	b2d2      	uxtb	r2, r2
 8002342:	9000      	str	r0, [sp, #0]
 8002344:	e7cd      	b.n	80022e2 <HAL_I2C_Master_Receive+0xb2>
 8002346:	46c0      	nop			@ (mov r8, r8)
 8002348:	80002400 	.word	0x80002400
 800234c:	fe00e800 	.word	0xfe00e800

08002350 <HAL_I2CEx_ConfigAnalogFilter>:
 8002350:	b5f0      	push	{r4, r5, r6, r7, lr}
 8002352:	0004      	movs	r4, r0
 8002354:	3441      	adds	r4, #65	@ 0x41
 8002356:	7822      	ldrb	r2, [r4, #0]
 8002358:	0003      	movs	r3, r0
 800235a:	000f      	movs	r7, r1
 800235c:	2002      	movs	r0, #2
 800235e:	b2d6      	uxtb	r6, r2
 8002360:	2a20      	cmp	r2, #32
 8002362:	d118      	bne.n	8002396 <HAL_I2CEx_ConfigAnalogFilter+0x46>
 8002364:	001d      	movs	r5, r3
 8002366:	3540      	adds	r5, #64	@ 0x40
 8002368:	782a      	ldrb	r2, [r5, #0]
 800236a:	2a01      	cmp	r2, #1
 800236c:	d013      	beq.n	8002396 <HAL_I2CEx_ConfigAnalogFilter+0x46>
 800236e:	2224      	movs	r2, #36	@ 0x24
 8002370:	7022      	strb	r2, [r4, #0]
 8002372:	681b      	ldr	r3, [r3, #0]
 8002374:	3a23      	subs	r2, #35	@ 0x23
 8002376:	6819      	ldr	r1, [r3, #0]
 8002378:	4807      	ldr	r0, [pc, #28]	@ (8002398 <HAL_I2CEx_ConfigAnalogFilter+0x48>)
 800237a:	4391      	bics	r1, r2
 800237c:	6019      	str	r1, [r3, #0]
 800237e:	6819      	ldr	r1, [r3, #0]
 8002380:	4001      	ands	r1, r0
 8002382:	2000      	movs	r0, #0
 8002384:	6019      	str	r1, [r3, #0]
 8002386:	6819      	ldr	r1, [r3, #0]
 8002388:	4339      	orrs	r1, r7
 800238a:	6019      	str	r1, [r3, #0]
 800238c:	6819      	ldr	r1, [r3, #0]
 800238e:	430a      	orrs	r2, r1
 8002390:	601a      	str	r2, [r3, #0]
 8002392:	7026      	strb	r6, [r4, #0]
 8002394:	7028      	strb	r0, [r5, #0]
 8002396:	bdf0      	pop	{r4, r5, r6, r7, pc}
 8002398:	ffffefff 	.word	0xffffefff

0800239c <HAL_I2CEx_ConfigDigitalFilter>:
 800239c:	0002      	movs	r2, r0
 800239e:	b5f0      	push	{r4, r5, r6, r7, lr}
 80023a0:	3241      	adds	r2, #65	@ 0x41
 80023a2:	7814      	ldrb	r4, [r2, #0]
 80023a4:	0003      	movs	r3, r0
 80023a6:	b2e5      	uxtb	r5, r4
 80023a8:	2002      	movs	r0, #2
 80023aa:	2c20      	cmp	r4, #32
 80023ac:	d117      	bne.n	80023de <HAL_I2CEx_ConfigDigitalFilter+0x42>
 80023ae:	001c      	movs	r4, r3
 80023b0:	3440      	adds	r4, #64	@ 0x40
 80023b2:	7826      	ldrb	r6, [r4, #0]
 80023b4:	2e01      	cmp	r6, #1
 80023b6:	d012      	beq.n	80023de <HAL_I2CEx_ConfigDigitalFilter+0x42>
 80023b8:	3022      	adds	r0, #34	@ 0x22
 80023ba:	7010      	strb	r0, [r2, #0]
 80023bc:	681b      	ldr	r3, [r3, #0]
 80023be:	3823      	subs	r0, #35	@ 0x23
 80023c0:	681e      	ldr	r6, [r3, #0]
 80023c2:	4f07      	ldr	r7, [pc, #28]	@ (80023e0 <HAL_I2CEx_ConfigDigitalFilter+0x44>)
 80023c4:	4386      	bics	r6, r0
 80023c6:	601e      	str	r6, [r3, #0]
 80023c8:	681e      	ldr	r6, [r3, #0]
 80023ca:	0209      	lsls	r1, r1, #8
 80023cc:	403e      	ands	r6, r7
 80023ce:	4331      	orrs	r1, r6
 80023d0:	6019      	str	r1, [r3, #0]
 80023d2:	6819      	ldr	r1, [r3, #0]
 80023d4:	4308      	orrs	r0, r1
 80023d6:	6018      	str	r0, [r3, #0]
 80023d8:	2000      	movs	r0, #0
 80023da:	7015      	strb	r5, [r2, #0]
 80023dc:	7020      	strb	r0, [r4, #0]
 80023de:	bdf0      	pop	{r4, r5, r6, r7, pc}
 80023e0:	fffff0ff 	.word	0xfffff0ff

080023e4 <HAL_RCC_OscConfig>:
 80023e4:	b5f0      	push	{r4, r5, r6, r7, lr}
 80023e6:	0004      	movs	r4, r0
 80023e8:	b085      	sub	sp, #20
 80023ea:	2800      	cmp	r0, #0
 80023ec:	d045      	beq.n	800247a <HAL_RCC_OscConfig+0x96>
 80023ee:	6803      	ldr	r3, [r0, #0]
 80023f0:	07db      	lsls	r3, r3, #31
 80023f2:	d42f      	bmi.n	8002454 <HAL_RCC_OscConfig+0x70>
 80023f4:	6823      	ldr	r3, [r4, #0]
 80023f6:	079b      	lsls	r3, r3, #30
 80023f8:	d500      	bpl.n	80023fc <HAL_RCC_OscConfig+0x18>
 80023fa:	e081      	b.n	8002500 <HAL_RCC_OscConfig+0x11c>
 80023fc:	6823      	ldr	r3, [r4, #0]
 80023fe:	071b      	lsls	r3, r3, #28
 8002400:	d500      	bpl.n	8002404 <HAL_RCC_OscConfig+0x20>
 8002402:	e0bc      	b.n	800257e <HAL_RCC_OscConfig+0x19a>
 8002404:	6823      	ldr	r3, [r4, #0]
 8002406:	075b      	lsls	r3, r3, #29
 8002408:	d500      	bpl.n	800240c <HAL_RCC_OscConfig+0x28>
 800240a:	e0df      	b.n	80025cc <HAL_RCC_OscConfig+0x1e8>
 800240c:	6823      	ldr	r3, [r4, #0]
 800240e:	06db      	lsls	r3, r3, #27
 8002410:	d51a      	bpl.n	8002448 <HAL_RCC_OscConfig+0x64>
 8002412:	6962      	ldr	r2, [r4, #20]
 8002414:	2304      	movs	r3, #4
 8002416:	4db4      	ldr	r5, [pc, #720]	@ (80026e8 <HAL_RCC_OscConfig+0x304>)
 8002418:	2a01      	cmp	r2, #1
 800241a:	d000      	beq.n	800241e <HAL_RCC_OscConfig+0x3a>
 800241c:	e148      	b.n	80026b0 <HAL_RCC_OscConfig+0x2cc>
 800241e:	6b69      	ldr	r1, [r5, #52]	@ 0x34
 8002420:	2702      	movs	r7, #2
 8002422:	430b      	orrs	r3, r1
 8002424:	636b      	str	r3, [r5, #52]	@ 0x34
 8002426:	6b6b      	ldr	r3, [r5, #52]	@ 0x34
 8002428:	431a      	orrs	r2, r3
 800242a:	636a      	str	r2, [r5, #52]	@ 0x34
 800242c:	f7ff fab6 	bl	800199c <HAL_GetTick>
 8002430:	0006      	movs	r6, r0
 8002432:	6b6b      	ldr	r3, [r5, #52]	@ 0x34
 8002434:	423b      	tst	r3, r7
 8002436:	d100      	bne.n	800243a <HAL_RCC_OscConfig+0x56>
 8002438:	e133      	b.n	80026a2 <HAL_RCC_OscConfig+0x2be>
 800243a:	21f8      	movs	r1, #248	@ 0xf8
 800243c:	6b6a      	ldr	r2, [r5, #52]	@ 0x34
 800243e:	69a3      	ldr	r3, [r4, #24]
 8002440:	438a      	bics	r2, r1
 8002442:	00db      	lsls	r3, r3, #3
 8002444:	4313      	orrs	r3, r2
 8002446:	636b      	str	r3, [r5, #52]	@ 0x34
 8002448:	6a23      	ldr	r3, [r4, #32]
 800244a:	2b00      	cmp	r3, #0
 800244c:	d000      	beq.n	8002450 <HAL_RCC_OscConfig+0x6c>
 800244e:	e157      	b.n	8002700 <HAL_RCC_OscConfig+0x31c>
 8002450:	2000      	movs	r0, #0
 8002452:	e02a      	b.n	80024aa <HAL_RCC_OscConfig+0xc6>
 8002454:	220c      	movs	r2, #12
 8002456:	4da4      	ldr	r5, [pc, #656]	@ (80026e8 <HAL_RCC_OscConfig+0x304>)
 8002458:	686b      	ldr	r3, [r5, #4]
 800245a:	4013      	ands	r3, r2
 800245c:	2b04      	cmp	r3, #4
 800245e:	d006      	beq.n	800246e <HAL_RCC_OscConfig+0x8a>
 8002460:	686b      	ldr	r3, [r5, #4]
 8002462:	4013      	ands	r3, r2
 8002464:	2b08      	cmp	r3, #8
 8002466:	d10a      	bne.n	800247e <HAL_RCC_OscConfig+0x9a>
 8002468:	686b      	ldr	r3, [r5, #4]
 800246a:	03db      	lsls	r3, r3, #15
 800246c:	d507      	bpl.n	800247e <HAL_RCC_OscConfig+0x9a>
 800246e:	682b      	ldr	r3, [r5, #0]
 8002470:	039b      	lsls	r3, r3, #14
 8002472:	d5bf      	bpl.n	80023f4 <HAL_RCC_OscConfig+0x10>
 8002474:	6863      	ldr	r3, [r4, #4]
 8002476:	2b00      	cmp	r3, #0
 8002478:	d1bc      	bne.n	80023f4 <HAL_RCC_OscConfig+0x10>
 800247a:	2001      	movs	r0, #1
 800247c:	e015      	b.n	80024aa <HAL_RCC_OscConfig+0xc6>
 800247e:	6863      	ldr	r3, [r4, #4]
 8002480:	2b01      	cmp	r3, #1
 8002482:	d114      	bne.n	80024ae <HAL_RCC_OscConfig+0xca>
 8002484:	2380      	movs	r3, #128	@ 0x80
 8002486:	682a      	ldr	r2, [r5, #0]
 8002488:	025b      	lsls	r3, r3, #9
 800248a:	4313      	orrs	r3, r2
 800248c:	602b      	str	r3, [r5, #0]
 800248e:	f7ff fa85 	bl	800199c <HAL_GetTick>
 8002492:	2780      	movs	r7, #128	@ 0x80
 8002494:	0006      	movs	r6, r0
 8002496:	02bf      	lsls	r7, r7, #10
 8002498:	682b      	ldr	r3, [r5, #0]
 800249a:	423b      	tst	r3, r7
 800249c:	d1aa      	bne.n	80023f4 <HAL_RCC_OscConfig+0x10>
 800249e:	f7ff fa7d 	bl	800199c <HAL_GetTick>
 80024a2:	1b80      	subs	r0, r0, r6
 80024a4:	2864      	cmp	r0, #100	@ 0x64
 80024a6:	d9f7      	bls.n	8002498 <HAL_RCC_OscConfig+0xb4>
 80024a8:	2003      	movs	r0, #3
 80024aa:	b005      	add	sp, #20
 80024ac:	bdf0      	pop	{r4, r5, r6, r7, pc}
 80024ae:	2b00      	cmp	r3, #0
 80024b0:	d116      	bne.n	80024e0 <HAL_RCC_OscConfig+0xfc>
 80024b2:	682b      	ldr	r3, [r5, #0]
 80024b4:	4a8d      	ldr	r2, [pc, #564]	@ (80026ec <HAL_RCC_OscConfig+0x308>)
 80024b6:	2780      	movs	r7, #128	@ 0x80
 80024b8:	4013      	ands	r3, r2
 80024ba:	602b      	str	r3, [r5, #0]
 80024bc:	682b      	ldr	r3, [r5, #0]
 80024be:	4a8c      	ldr	r2, [pc, #560]	@ (80026f0 <HAL_RCC_OscConfig+0x30c>)
 80024c0:	02bf      	lsls	r7, r7, #10
 80024c2:	4013      	ands	r3, r2
 80024c4:	602b      	str	r3, [r5, #0]
 80024c6:	f7ff fa69 	bl	800199c <HAL_GetTick>
 80024ca:	0006      	movs	r6, r0
 80024cc:	682b      	ldr	r3, [r5, #0]
 80024ce:	423b      	tst	r3, r7
 80024d0:	d100      	bne.n	80024d4 <HAL_RCC_OscConfig+0xf0>
 80024d2:	e78f      	b.n	80023f4 <HAL_RCC_OscConfig+0x10>
 80024d4:	f7ff fa62 	bl	800199c <HAL_GetTick>
 80024d8:	1b80      	subs	r0, r0, r6
 80024da:	2864      	cmp	r0, #100	@ 0x64
 80024dc:	d9f6      	bls.n	80024cc <HAL_RCC_OscConfig+0xe8>
 80024de:	e7e3      	b.n	80024a8 <HAL_RCC_OscConfig+0xc4>
 80024e0:	2b05      	cmp	r3, #5
 80024e2:	d105      	bne.n	80024f0 <HAL_RCC_OscConfig+0x10c>
 80024e4:	2380      	movs	r3, #128	@ 0x80
 80024e6:	682a      	ldr	r2, [r5, #0]
 80024e8:	02db      	lsls	r3, r3, #11
 80024ea:	4313      	orrs	r3, r2
 80024ec:	602b      	str	r3, [r5, #0]
 80024ee:	e7c9      	b.n	8002484 <HAL_RCC_OscConfig+0xa0>
 80024f0:	682b      	ldr	r3, [r5, #0]
 80024f2:	4a7e      	ldr	r2, [pc, #504]	@ (80026ec <HAL_RCC_OscConfig+0x308>)
 80024f4:	4013      	ands	r3, r2
 80024f6:	602b      	str	r3, [r5, #0]
 80024f8:	682b      	ldr	r3, [r5, #0]
 80024fa:	4a7d      	ldr	r2, [pc, #500]	@ (80026f0 <HAL_RCC_OscConfig+0x30c>)
 80024fc:	4013      	ands	r3, r2
 80024fe:	e7c5      	b.n	800248c <HAL_RCC_OscConfig+0xa8>
 8002500:	220c      	movs	r2, #12
 8002502:	4d79      	ldr	r5, [pc, #484]	@ (80026e8 <HAL_RCC_OscConfig+0x304>)
 8002504:	686b      	ldr	r3, [r5, #4]
 8002506:	4213      	tst	r3, r2
 8002508:	d006      	beq.n	8002518 <HAL_RCC_OscConfig+0x134>
 800250a:	686b      	ldr	r3, [r5, #4]
 800250c:	4013      	ands	r3, r2
 800250e:	2b08      	cmp	r3, #8
 8002510:	d110      	bne.n	8002534 <HAL_RCC_OscConfig+0x150>
 8002512:	686b      	ldr	r3, [r5, #4]
 8002514:	03db      	lsls	r3, r3, #15
 8002516:	d40d      	bmi.n	8002534 <HAL_RCC_OscConfig+0x150>
 8002518:	682b      	ldr	r3, [r5, #0]
 800251a:	079b      	lsls	r3, r3, #30
 800251c:	d502      	bpl.n	8002524 <HAL_RCC_OscConfig+0x140>
 800251e:	68e3      	ldr	r3, [r4, #12]
 8002520:	2b01      	cmp	r3, #1
 8002522:	d1aa      	bne.n	800247a <HAL_RCC_OscConfig+0x96>
 8002524:	21f8      	movs	r1, #248	@ 0xf8
 8002526:	682a      	ldr	r2, [r5, #0]
 8002528:	6923      	ldr	r3, [r4, #16]
 800252a:	438a      	bics	r2, r1
 800252c:	00db      	lsls	r3, r3, #3
 800252e:	4313      	orrs	r3, r2
 8002530:	602b      	str	r3, [r5, #0]
 8002532:	e763      	b.n	80023fc <HAL_RCC_OscConfig+0x18>
 8002534:	68e2      	ldr	r2, [r4, #12]
 8002536:	2301      	movs	r3, #1
 8002538:	2a00      	cmp	r2, #0
 800253a:	d00f      	beq.n	800255c <HAL_RCC_OscConfig+0x178>
 800253c:	682a      	ldr	r2, [r5, #0]
 800253e:	2702      	movs	r7, #2
 8002540:	4313      	orrs	r3, r2
 8002542:	602b      	str	r3, [r5, #0]
 8002544:	f7ff fa2a 	bl	800199c <HAL_GetTick>
 8002548:	0006      	movs	r6, r0
 800254a:	682b      	ldr	r3, [r5, #0]
 800254c:	423b      	tst	r3, r7
 800254e:	d1e9      	bne.n	8002524 <HAL_RCC_OscConfig+0x140>
 8002550:	f7ff fa24 	bl	800199c <HAL_GetTick>
 8002554:	1b80      	subs	r0, r0, r6
 8002556:	2802      	cmp	r0, #2
 8002558:	d9f7      	bls.n	800254a <HAL_RCC_OscConfig+0x166>
 800255a:	e7a5      	b.n	80024a8 <HAL_RCC_OscConfig+0xc4>
 800255c:	682a      	ldr	r2, [r5, #0]
 800255e:	2702      	movs	r7, #2
 8002560:	439a      	bics	r2, r3
 8002562:	602a      	str	r2, [r5, #0]
 8002564:	f7ff fa1a 	bl	800199c <HAL_GetTick>
 8002568:	0006      	movs	r6, r0
 800256a:	682b      	ldr	r3, [r5, #0]
 800256c:	423b      	tst	r3, r7
 800256e:	d100      	bne.n	8002572 <HAL_RCC_OscConfig+0x18e>
 8002570:	e744      	b.n	80023fc <HAL_RCC_OscConfig+0x18>
 8002572:	f7ff fa13 	bl	800199c <HAL_GetTick>
 8002576:	1b80      	subs	r0, r0, r6
 8002578:	2802      	cmp	r0, #2
 800257a:	d9f6      	bls.n	800256a <HAL_RCC_OscConfig+0x186>
 800257c:	e794      	b.n	80024a8 <HAL_RCC_OscConfig+0xc4>
 800257e:	69e2      	ldr	r2, [r4, #28]
 8002580:	2301      	movs	r3, #1
 8002582:	4d59      	ldr	r5, [pc, #356]	@ (80026e8 <HAL_RCC_OscConfig+0x304>)
 8002584:	2a00      	cmp	r2, #0
 8002586:	d010      	beq.n	80025aa <HAL_RCC_OscConfig+0x1c6>
 8002588:	6a6a      	ldr	r2, [r5, #36]	@ 0x24
 800258a:	2702      	movs	r7, #2
 800258c:	4313      	orrs	r3, r2
 800258e:	626b      	str	r3, [r5, #36]	@ 0x24
 8002590:	f7ff fa04 	bl	800199c <HAL_GetTick>
 8002594:	0006      	movs	r6, r0
 8002596:	6a6b      	ldr	r3, [r5, #36]	@ 0x24
 8002598:	423b      	tst	r3, r7
 800259a:	d000      	beq.n	800259e <HAL_RCC_OscConfig+0x1ba>
 800259c:	e732      	b.n	8002404 <HAL_RCC_OscConfig+0x20>
 800259e:	f7ff f9fd 	bl	800199c <HAL_GetTick>
 80025a2:	1b80      	subs	r0, r0, r6
 80025a4:	2802      	cmp	r0, #2
 80025a6:	d9f6      	bls.n	8002596 <HAL_RCC_OscConfig+0x1b2>
 80025a8:	e77e      	b.n	80024a8 <HAL_RCC_OscConfig+0xc4>
 80025aa:	6a6a      	ldr	r2, [r5, #36]	@ 0x24
 80025ac:	2702      	movs	r7, #2
 80025ae:	439a      	bics	r2, r3
 80025b0:	626a      	str	r2, [r5, #36]	@ 0x24
 80025b2:	f7ff f9f3 	bl	800199c <HAL_GetTick>
 80025b6:	0006      	movs	r6, r0
 80025b8:	6a6b      	ldr	r3, [r5, #36]	@ 0x24
 80025ba:	423b      	tst	r3, r7
 80025bc:	d100      	bne.n	80025c0 <HAL_RCC_OscConfig+0x1dc>
 80025be:	e721      	b.n	8002404 <HAL_RCC_OscConfig+0x20>
 80025c0:	f7ff f9ec 	bl	800199c <HAL_GetTick>
 80025c4:	1b80      	subs	r0, r0, r6
 80025c6:	2802      	cmp	r0, #2
 80025c8:	d9f6      	bls.n	80025b8 <HAL_RCC_OscConfig+0x1d4>
 80025ca:	e76d      	b.n	80024a8 <HAL_RCC_OscConfig+0xc4>
 80025cc:	2280      	movs	r2, #128	@ 0x80
 80025ce:	2100      	movs	r1, #0
 80025d0:	4d45      	ldr	r5, [pc, #276]	@ (80026e8 <HAL_RCC_OscConfig+0x304>)
 80025d2:	0552      	lsls	r2, r2, #21
 80025d4:	69eb      	ldr	r3, [r5, #28]
 80025d6:	9100      	str	r1, [sp, #0]
 80025d8:	4213      	tst	r3, r2
 80025da:	d108      	bne.n	80025ee <HAL_RCC_OscConfig+0x20a>
 80025dc:	69eb      	ldr	r3, [r5, #28]
 80025de:	4313      	orrs	r3, r2
 80025e0:	61eb      	str	r3, [r5, #28]
 80025e2:	69eb      	ldr	r3, [r5, #28]
 80025e4:	4013      	ands	r3, r2
 80025e6:	9303      	str	r3, [sp, #12]
 80025e8:	9b03      	ldr	r3, [sp, #12]
 80025ea:	2301      	movs	r3, #1
 80025ec:	9300      	str	r3, [sp, #0]
 80025ee:	2780      	movs	r7, #128	@ 0x80
 80025f0:	4e40      	ldr	r6, [pc, #256]	@ (80026f4 <HAL_RCC_OscConfig+0x310>)
 80025f2:	007f      	lsls	r7, r7, #1
 80025f4:	6833      	ldr	r3, [r6, #0]
 80025f6:	423b      	tst	r3, r7
 80025f8:	d015      	beq.n	8002626 <HAL_RCC_OscConfig+0x242>
 80025fa:	68a3      	ldr	r3, [r4, #8]
 80025fc:	2b01      	cmp	r3, #1
 80025fe:	d122      	bne.n	8002646 <HAL_RCC_OscConfig+0x262>
 8002600:	6a2a      	ldr	r2, [r5, #32]
 8002602:	4313      	orrs	r3, r2
 8002604:	622b      	str	r3, [r5, #32]
 8002606:	f7ff f9c9 	bl	800199c <HAL_GetTick>
 800260a:	2702      	movs	r7, #2
 800260c:	0006      	movs	r6, r0
 800260e:	6a2b      	ldr	r3, [r5, #32]
 8002610:	423b      	tst	r3, r7
 8002612:	d03f      	beq.n	8002694 <HAL_RCC_OscConfig+0x2b0>
 8002614:	9b00      	ldr	r3, [sp, #0]
 8002616:	2b01      	cmp	r3, #1
 8002618:	d000      	beq.n	800261c <HAL_RCC_OscConfig+0x238>
 800261a:	e6f7      	b.n	800240c <HAL_RCC_OscConfig+0x28>
 800261c:	69eb      	ldr	r3, [r5, #28]
 800261e:	4a36      	ldr	r2, [pc, #216]	@ (80026f8 <HAL_RCC_OscConfig+0x314>)
 8002620:	4013      	ands	r3, r2
 8002622:	61eb      	str	r3, [r5, #28]
 8002624:	e6f2      	b.n	800240c <HAL_RCC_OscConfig+0x28>
 8002626:	6833      	ldr	r3, [r6, #0]
 8002628:	433b      	orrs	r3, r7
 800262a:	6033      	str	r3, [r6, #0]
 800262c:	f7ff f9b6 	bl	800199c <HAL_GetTick>
 8002630:	9001      	str	r0, [sp, #4]
 8002632:	6833      	ldr	r3, [r6, #0]
 8002634:	423b      	tst	r3, r7
 8002636:	d1e0      	bne.n	80025fa <HAL_RCC_OscConfig+0x216>
 8002638:	f7ff f9b0 	bl	800199c <HAL_GetTick>
 800263c:	9b01      	ldr	r3, [sp, #4]
 800263e:	1ac0      	subs	r0, r0, r3
 8002640:	2864      	cmp	r0, #100	@ 0x64
 8002642:	d9f6      	bls.n	8002632 <HAL_RCC_OscConfig+0x24e>
 8002644:	e730      	b.n	80024a8 <HAL_RCC_OscConfig+0xc4>
 8002646:	2201      	movs	r2, #1
 8002648:	2b00      	cmp	r3, #0
 800264a:	d114      	bne.n	8002676 <HAL_RCC_OscConfig+0x292>
 800264c:	6a2b      	ldr	r3, [r5, #32]
 800264e:	2702      	movs	r7, #2
 8002650:	4393      	bics	r3, r2
 8002652:	622b      	str	r3, [r5, #32]
 8002654:	6a2b      	ldr	r3, [r5, #32]
 8002656:	3203      	adds	r2, #3
 8002658:	4393      	bics	r3, r2
 800265a:	622b      	str	r3, [r5, #32]
 800265c:	f7ff f99e 	bl	800199c <HAL_GetTick>
 8002660:	0006      	movs	r6, r0
 8002662:	6a2b      	ldr	r3, [r5, #32]
 8002664:	423b      	tst	r3, r7
 8002666:	d0d5      	beq.n	8002614 <HAL_RCC_OscConfig+0x230>
 8002668:	f7ff f998 	bl	800199c <HAL_GetTick>
 800266c:	4b23      	ldr	r3, [pc, #140]	@ (80026fc <HAL_RCC_OscConfig+0x318>)
 800266e:	1b80      	subs	r0, r0, r6
 8002670:	4298      	cmp	r0, r3
 8002672:	d9f6      	bls.n	8002662 <HAL_RCC_OscConfig+0x27e>
 8002674:	e718      	b.n	80024a8 <HAL_RCC_OscConfig+0xc4>
 8002676:	2b05      	cmp	r3, #5
 8002678:	d105      	bne.n	8002686 <HAL_RCC_OscConfig+0x2a2>
 800267a:	6a29      	ldr	r1, [r5, #32]
 800267c:	3b01      	subs	r3, #1
 800267e:	430b      	orrs	r3, r1
 8002680:	622b      	str	r3, [r5, #32]
 8002682:	6a2b      	ldr	r3, [r5, #32]
 8002684:	e7bd      	b.n	8002602 <HAL_RCC_OscConfig+0x21e>
 8002686:	6a2b      	ldr	r3, [r5, #32]
 8002688:	4393      	bics	r3, r2
 800268a:	2204      	movs	r2, #4
 800268c:	622b      	str	r3, [r5, #32]
 800268e:	6a2b      	ldr	r3, [r5, #32]
 8002690:	4393      	bics	r3, r2
 8002692:	e7b7      	b.n	8002604 <HAL_RCC_OscConfig+0x220>
 8002694:	f7ff f982 	bl	800199c <HAL_GetTick>
 8002698:	4b18      	ldr	r3, [pc, #96]	@ (80026fc <HAL_RCC_OscConfig+0x318>)
 800269a:	1b80      	subs	r0, r0, r6
 800269c:	4298      	cmp	r0, r3
 800269e:	d9b6      	bls.n	800260e <HAL_RCC_OscConfig+0x22a>
 80026a0:	e702      	b.n	80024a8 <HAL_RCC_OscConfig+0xc4>
 80026a2:	f7ff f97b 	bl	800199c <HAL_GetTick>
 80026a6:	1b80      	subs	r0, r0, r6
 80026a8:	2802      	cmp	r0, #2
 80026aa:	d800      	bhi.n	80026ae <HAL_RCC_OscConfig+0x2ca>
 80026ac:	e6c1      	b.n	8002432 <HAL_RCC_OscConfig+0x4e>
 80026ae:	e6fb      	b.n	80024a8 <HAL_RCC_OscConfig+0xc4>
 80026b0:	3205      	adds	r2, #5
 80026b2:	d103      	bne.n	80026bc <HAL_RCC_OscConfig+0x2d8>
 80026b4:	6b6a      	ldr	r2, [r5, #52]	@ 0x34
 80026b6:	439a      	bics	r2, r3
 80026b8:	636a      	str	r2, [r5, #52]	@ 0x34
 80026ba:	e6be      	b.n	800243a <HAL_RCC_OscConfig+0x56>
 80026bc:	6b6a      	ldr	r2, [r5, #52]	@ 0x34
 80026be:	2702      	movs	r7, #2
 80026c0:	4313      	orrs	r3, r2
 80026c2:	2201      	movs	r2, #1
 80026c4:	636b      	str	r3, [r5, #52]	@ 0x34
 80026c6:	6b6b      	ldr	r3, [r5, #52]	@ 0x34
 80026c8:	4393      	bics	r3, r2
 80026ca:	636b      	str	r3, [r5, #52]	@ 0x34
 80026cc:	f7ff f966 	bl	800199c <HAL_GetTick>
 80026d0:	0006      	movs	r6, r0
 80026d2:	6b6b      	ldr	r3, [r5, #52]	@ 0x34
 80026d4:	423b      	tst	r3, r7
 80026d6:	d100      	bne.n	80026da <HAL_RCC_OscConfig+0x2f6>
 80026d8:	e6b6      	b.n	8002448 <HAL_RCC_OscConfig+0x64>
 80026da:	f7ff f95f 	bl	800199c <HAL_GetTick>
 80026de:	1b80      	subs	r0, r0, r6
 80026e0:	2802      	cmp	r0, #2
 80026e2:	d9f6      	bls.n	80026d2 <HAL_RCC_OscConfig+0x2ee>
 80026e4:	e6e0      	b.n	80024a8 <HAL_RCC_OscConfig+0xc4>
 80026e6:	46c0      	nop			@ (mov r8, r8)
 80026e8:	40021000 	.word	0x40021000
 80026ec:	fffeffff 	.word	0xfffeffff
 80026f0:	fffbffff 	.word	0xfffbffff
 80026f4:	40007000 	.word	0x40007000
 80026f8:	efffffff 	.word	0xefffffff
 80026fc:	00001388 	.word	0x00001388
 8002700:	210c      	movs	r1, #12
 8002702:	4d34      	ldr	r5, [pc, #208]	@ (80027d4 <HAL_RCC_OscConfig+0x3f0>)
 8002704:	686a      	ldr	r2, [r5, #4]
 8002706:	400a      	ands	r2, r1
 8002708:	2a08      	cmp	r2, #8
 800270a:	d047      	beq.n	800279c <HAL_RCC_OscConfig+0x3b8>
 800270c:	4a32      	ldr	r2, [pc, #200]	@ (80027d8 <HAL_RCC_OscConfig+0x3f4>)
 800270e:	2b02      	cmp	r3, #2
 8002710:	d132      	bne.n	8002778 <HAL_RCC_OscConfig+0x394>
 8002712:	682b      	ldr	r3, [r5, #0]
 8002714:	2780      	movs	r7, #128	@ 0x80
 8002716:	4013      	ands	r3, r2
 8002718:	602b      	str	r3, [r5, #0]
 800271a:	f7ff f93f 	bl	800199c <HAL_GetTick>
 800271e:	0006      	movs	r6, r0
 8002720:	04bf      	lsls	r7, r7, #18
 8002722:	682b      	ldr	r3, [r5, #0]
 8002724:	423b      	tst	r3, r7
 8002726:	d121      	bne.n	800276c <HAL_RCC_OscConfig+0x388>
 8002728:	220f      	movs	r2, #15
 800272a:	6aeb      	ldr	r3, [r5, #44]	@ 0x2c
 800272c:	2680      	movs	r6, #128	@ 0x80
 800272e:	4393      	bics	r3, r2
 8002730:	6ae2      	ldr	r2, [r4, #44]	@ 0x2c
 8002732:	04b6      	lsls	r6, r6, #18
 8002734:	4313      	orrs	r3, r2
 8002736:	62eb      	str	r3, [r5, #44]	@ 0x2c
 8002738:	6a61      	ldr	r1, [r4, #36]	@ 0x24
 800273a:	6aa3      	ldr	r3, [r4, #40]	@ 0x28
 800273c:	686a      	ldr	r2, [r5, #4]
 800273e:	430b      	orrs	r3, r1
 8002740:	4926      	ldr	r1, [pc, #152]	@ (80027dc <HAL_RCC_OscConfig+0x3f8>)
 8002742:	400a      	ands	r2, r1
 8002744:	4313      	orrs	r3, r2
 8002746:	606b      	str	r3, [r5, #4]
 8002748:	2380      	movs	r3, #128	@ 0x80
 800274a:	682a      	ldr	r2, [r5, #0]
 800274c:	045b      	lsls	r3, r3, #17
 800274e:	4313      	orrs	r3, r2
 8002750:	602b      	str	r3, [r5, #0]
 8002752:	f7ff f923 	bl	800199c <HAL_GetTick>
 8002756:	0004      	movs	r4, r0
 8002758:	682b      	ldr	r3, [r5, #0]
 800275a:	4233      	tst	r3, r6
 800275c:	d000      	beq.n	8002760 <HAL_RCC_OscConfig+0x37c>
 800275e:	e677      	b.n	8002450 <HAL_RCC_OscConfig+0x6c>
 8002760:	f7ff f91c 	bl	800199c <HAL_GetTick>
 8002764:	1b00      	subs	r0, r0, r4
 8002766:	2802      	cmp	r0, #2
 8002768:	d9f6      	bls.n	8002758 <HAL_RCC_OscConfig+0x374>
 800276a:	e69d      	b.n	80024a8 <HAL_RCC_OscConfig+0xc4>
 800276c:	f7ff f916 	bl	800199c <HAL_GetTick>
 8002770:	1b80      	subs	r0, r0, r6
 8002772:	2802      	cmp	r0, #2
 8002774:	d9d5      	bls.n	8002722 <HAL_RCC_OscConfig+0x33e>
 8002776:	e697      	b.n	80024a8 <HAL_RCC_OscConfig+0xc4>
 8002778:	682b      	ldr	r3, [r5, #0]
 800277a:	2680      	movs	r6, #128	@ 0x80
 800277c:	4013      	ands	r3, r2
 800277e:	602b      	str	r3, [r5, #0]
 8002780:	f7ff f90c 	bl	800199c <HAL_GetTick>
 8002784:	0004      	movs	r4, r0
 8002786:	04b6      	lsls	r6, r6, #18
 8002788:	682b      	ldr	r3, [r5, #0]
 800278a:	4233      	tst	r3, r6
 800278c:	d100      	bne.n	8002790 <HAL_RCC_OscConfig+0x3ac>
 800278e:	e65f      	b.n	8002450 <HAL_RCC_OscConfig+0x6c>
 8002790:	f7ff f904 	bl	800199c <HAL_GetTick>
 8002794:	1b00      	subs	r0, r0, r4
 8002796:	2802      	cmp	r0, #2
 8002798:	d9f6      	bls.n	8002788 <HAL_RCC_OscConfig+0x3a4>
 800279a:	e685      	b.n	80024a8 <HAL_RCC_OscConfig+0xc4>
 800279c:	2b01      	cmp	r3, #1
 800279e:	d100      	bne.n	80027a2 <HAL_RCC_OscConfig+0x3be>
 80027a0:	e66b      	b.n	800247a <HAL_RCC_OscConfig+0x96>
 80027a2:	2280      	movs	r2, #128	@ 0x80
 80027a4:	6868      	ldr	r0, [r5, #4]
 80027a6:	6a61      	ldr	r1, [r4, #36]	@ 0x24
 80027a8:	0252      	lsls	r2, r2, #9
 80027aa:	6aeb      	ldr	r3, [r5, #44]	@ 0x2c
 80027ac:	4002      	ands	r2, r0
 80027ae:	428a      	cmp	r2, r1
 80027b0:	d000      	beq.n	80027b4 <HAL_RCC_OscConfig+0x3d0>
 80027b2:	e662      	b.n	800247a <HAL_RCC_OscConfig+0x96>
 80027b4:	220f      	movs	r2, #15
 80027b6:	4013      	ands	r3, r2
 80027b8:	6ae2      	ldr	r2, [r4, #44]	@ 0x2c
 80027ba:	4293      	cmp	r3, r2
 80027bc:	d000      	beq.n	80027c0 <HAL_RCC_OscConfig+0x3dc>
 80027be:	e65c      	b.n	800247a <HAL_RCC_OscConfig+0x96>
 80027c0:	23f0      	movs	r3, #240	@ 0xf0
 80027c2:	039b      	lsls	r3, r3, #14
 80027c4:	4018      	ands	r0, r3
 80027c6:	6aa3      	ldr	r3, [r4, #40]	@ 0x28
 80027c8:	1ac0      	subs	r0, r0, r3
 80027ca:	1e43      	subs	r3, r0, #1
 80027cc:	4198      	sbcs	r0, r3
 80027ce:	b2c0      	uxtb	r0, r0
 80027d0:	e66b      	b.n	80024aa <HAL_RCC_OscConfig+0xc6>
 80027d2:	46c0      	nop			@ (mov r8, r8)
 80027d4:	40021000 	.word	0x40021000
 80027d8:	feffffff 	.word	0xfeffffff
 80027dc:	ffc2ffff 	.word	0xffc2ffff

080027e0 <HAL_RCC_GetSysClockFreq>:
 80027e0:	220c      	movs	r2, #12
 80027e2:	b570      	push	{r4, r5, r6, lr}
 80027e4:	4d0c      	ldr	r5, [pc, #48]	@ (8002818 <HAL_RCC_GetSysClockFreq+0x38>)
 80027e6:	686b      	ldr	r3, [r5, #4]
 80027e8:	401a      	ands	r2, r3
 80027ea:	2a08      	cmp	r2, #8
 80027ec:	d111      	bne.n	8002812 <HAL_RCC_GetSysClockFreq+0x32>
 80027ee:	200f      	movs	r0, #15
 80027f0:	490a      	ldr	r1, [pc, #40]	@ (800281c <HAL_RCC_GetSysClockFreq+0x3c>)
 80027f2:	0c9a      	lsrs	r2, r3, #18
 80027f4:	4002      	ands	r2, r0
 80027f6:	5c8c      	ldrb	r4, [r1, r2]
 80027f8:	6aea      	ldr	r2, [r5, #44]	@ 0x2c
 80027fa:	03db      	lsls	r3, r3, #15
 80027fc:	d507      	bpl.n	800280e <HAL_RCC_GetSysClockFreq+0x2e>
 80027fe:	4908      	ldr	r1, [pc, #32]	@ (8002820 <HAL_RCC_GetSysClockFreq+0x40>)
 8002800:	4002      	ands	r2, r0
 8002802:	5c89      	ldrb	r1, [r1, r2]
 8002804:	4807      	ldr	r0, [pc, #28]	@ (8002824 <HAL_RCC_GetSysClockFreq+0x44>)
 8002806:	f7fd fc7f 	bl	8000108 <__udivsi3>
 800280a:	4360      	muls	r0, r4
 800280c:	bd70      	pop	{r4, r5, r6, pc}
 800280e:	4806      	ldr	r0, [pc, #24]	@ (8002828 <HAL_RCC_GetSysClockFreq+0x48>)
 8002810:	e7fb      	b.n	800280a <HAL_RCC_GetSysClockFreq+0x2a>
 8002812:	4804      	ldr	r0, [pc, #16]	@ (8002824 <HAL_RCC_GetSysClockFreq+0x44>)
 8002814:	e7fa      	b.n	800280c <HAL_RCC_GetSysClockFreq+0x2c>
 8002816:	46c0      	nop			@ (mov r8, r8)
 8002818:	40021000 	.word	0x40021000
 800281c:	08003474 	.word	0x08003474
 8002820:	08003464 	.word	0x08003464
 8002824:	007a1200 	.word	0x007a1200
 8002828:	003d0900 	.word	0x003d0900

0800282c <HAL_RCC_ClockConfig>:
 800282c:	b5f7      	push	{r0, r1, r2, r4, r5, r6, r7, lr}
 800282e:	0004      	movs	r4, r0
 8002830:	000e      	movs	r6, r1
 8002832:	2800      	cmp	r0, #0
 8002834:	d101      	bne.n	800283a <HAL_RCC_ClockConfig+0xe>
 8002836:	2001      	movs	r0, #1
 8002838:	bdfe      	pop	{r1, r2, r3, r4, r5, r6, r7, pc}
 800283a:	2201      	movs	r2, #1
 800283c:	4d37      	ldr	r5, [pc, #220]	@ (800291c <HAL_RCC_ClockConfig+0xf0>)
 800283e:	682b      	ldr	r3, [r5, #0]
 8002840:	4013      	ands	r3, r2
 8002842:	428b      	cmp	r3, r1
 8002844:	d31c      	bcc.n	8002880 <HAL_RCC_ClockConfig+0x54>
 8002846:	6822      	ldr	r2, [r4, #0]
 8002848:	0793      	lsls	r3, r2, #30
 800284a:	d422      	bmi.n	8002892 <HAL_RCC_ClockConfig+0x66>
 800284c:	07d2      	lsls	r2, r2, #31
 800284e:	d42f      	bmi.n	80028b0 <HAL_RCC_ClockConfig+0x84>
 8002850:	2301      	movs	r3, #1
 8002852:	682a      	ldr	r2, [r5, #0]
 8002854:	401a      	ands	r2, r3
 8002856:	42b2      	cmp	r2, r6
 8002858:	d851      	bhi.n	80028fe <HAL_RCC_ClockConfig+0xd2>
 800285a:	6823      	ldr	r3, [r4, #0]
 800285c:	4d30      	ldr	r5, [pc, #192]	@ (8002920 <HAL_RCC_ClockConfig+0xf4>)
 800285e:	075b      	lsls	r3, r3, #29
 8002860:	d454      	bmi.n	800290c <HAL_RCC_ClockConfig+0xe0>
 8002862:	f7ff ffbd 	bl	80027e0 <HAL_RCC_GetSysClockFreq>
 8002866:	686b      	ldr	r3, [r5, #4]
 8002868:	4a2e      	ldr	r2, [pc, #184]	@ (8002924 <HAL_RCC_ClockConfig+0xf8>)
 800286a:	061b      	lsls	r3, r3, #24
 800286c:	0f1b      	lsrs	r3, r3, #28
 800286e:	5cd3      	ldrb	r3, [r2, r3]
 8002870:	492d      	ldr	r1, [pc, #180]	@ (8002928 <HAL_RCC_ClockConfig+0xfc>)
 8002872:	40d8      	lsrs	r0, r3
 8002874:	6008      	str	r0, [r1, #0]
 8002876:	2003      	movs	r0, #3
 8002878:	f7ff f850 	bl	800191c <HAL_InitTick>
 800287c:	2000      	movs	r0, #0
 800287e:	e7db      	b.n	8002838 <HAL_RCC_ClockConfig+0xc>
 8002880:	682b      	ldr	r3, [r5, #0]
 8002882:	4393      	bics	r3, r2
 8002884:	430b      	orrs	r3, r1
 8002886:	602b      	str	r3, [r5, #0]
 8002888:	682b      	ldr	r3, [r5, #0]
 800288a:	4013      	ands	r3, r2
 800288c:	428b      	cmp	r3, r1
 800288e:	d1d2      	bne.n	8002836 <HAL_RCC_ClockConfig+0xa>
 8002890:	e7d9      	b.n	8002846 <HAL_RCC_ClockConfig+0x1a>
 8002892:	4923      	ldr	r1, [pc, #140]	@ (8002920 <HAL_RCC_ClockConfig+0xf4>)
 8002894:	0753      	lsls	r3, r2, #29
 8002896:	d504      	bpl.n	80028a2 <HAL_RCC_ClockConfig+0x76>
 8002898:	23e0      	movs	r3, #224	@ 0xe0
 800289a:	6848      	ldr	r0, [r1, #4]
 800289c:	00db      	lsls	r3, r3, #3
 800289e:	4303      	orrs	r3, r0
 80028a0:	604b      	str	r3, [r1, #4]
 80028a2:	20f0      	movs	r0, #240	@ 0xf0
 80028a4:	684b      	ldr	r3, [r1, #4]
 80028a6:	4383      	bics	r3, r0
 80028a8:	68a0      	ldr	r0, [r4, #8]
 80028aa:	4303      	orrs	r3, r0
 80028ac:	604b      	str	r3, [r1, #4]
 80028ae:	e7cd      	b.n	800284c <HAL_RCC_ClockConfig+0x20>
 80028b0:	4f1b      	ldr	r7, [pc, #108]	@ (8002920 <HAL_RCC_ClockConfig+0xf4>)
 80028b2:	6862      	ldr	r2, [r4, #4]
 80028b4:	683b      	ldr	r3, [r7, #0]
 80028b6:	2a01      	cmp	r2, #1
 80028b8:	d119      	bne.n	80028ee <HAL_RCC_ClockConfig+0xc2>
 80028ba:	039b      	lsls	r3, r3, #14
 80028bc:	d5bb      	bpl.n	8002836 <HAL_RCC_ClockConfig+0xa>
 80028be:	2103      	movs	r1, #3
 80028c0:	687b      	ldr	r3, [r7, #4]
 80028c2:	438b      	bics	r3, r1
 80028c4:	4313      	orrs	r3, r2
 80028c6:	607b      	str	r3, [r7, #4]
 80028c8:	f7ff f868 	bl	800199c <HAL_GetTick>
 80028cc:	9001      	str	r0, [sp, #4]
 80028ce:	230c      	movs	r3, #12
 80028d0:	687a      	ldr	r2, [r7, #4]
 80028d2:	401a      	ands	r2, r3
 80028d4:	6863      	ldr	r3, [r4, #4]
 80028d6:	009b      	lsls	r3, r3, #2
 80028d8:	429a      	cmp	r2, r3
 80028da:	d0b9      	beq.n	8002850 <HAL_RCC_ClockConfig+0x24>
 80028dc:	f7ff f85e 	bl	800199c <HAL_GetTick>
 80028e0:	9b01      	ldr	r3, [sp, #4]
 80028e2:	1ac0      	subs	r0, r0, r3
 80028e4:	4b11      	ldr	r3, [pc, #68]	@ (800292c <HAL_RCC_ClockConfig+0x100>)
 80028e6:	4298      	cmp	r0, r3
 80028e8:	d9f1      	bls.n	80028ce <HAL_RCC_ClockConfig+0xa2>
 80028ea:	2003      	movs	r0, #3
 80028ec:	e7a4      	b.n	8002838 <HAL_RCC_ClockConfig+0xc>
 80028ee:	2a02      	cmp	r2, #2
 80028f0:	d102      	bne.n	80028f8 <HAL_RCC_ClockConfig+0xcc>
 80028f2:	019b      	lsls	r3, r3, #6
 80028f4:	d4e3      	bmi.n	80028be <HAL_RCC_ClockConfig+0x92>
 80028f6:	e79e      	b.n	8002836 <HAL_RCC_ClockConfig+0xa>
 80028f8:	079b      	lsls	r3, r3, #30
 80028fa:	d4e0      	bmi.n	80028be <HAL_RCC_ClockConfig+0x92>
 80028fc:	e79b      	b.n	8002836 <HAL_RCC_ClockConfig+0xa>
 80028fe:	682a      	ldr	r2, [r5, #0]
 8002900:	439a      	bics	r2, r3
 8002902:	602a      	str	r2, [r5, #0]
 8002904:	682a      	ldr	r2, [r5, #0]
 8002906:	421a      	tst	r2, r3
 8002908:	d0a7      	beq.n	800285a <HAL_RCC_ClockConfig+0x2e>
 800290a:	e794      	b.n	8002836 <HAL_RCC_ClockConfig+0xa>
 800290c:	686b      	ldr	r3, [r5, #4]
 800290e:	4a08      	ldr	r2, [pc, #32]	@ (8002930 <HAL_RCC_ClockConfig+0x104>)
 8002910:	4013      	ands	r3, r2
 8002912:	68e2      	ldr	r2, [r4, #12]
 8002914:	4313      	orrs	r3, r2
 8002916:	606b      	str	r3, [r5, #4]
 8002918:	e7a3      	b.n	8002862 <HAL_RCC_ClockConfig+0x36>
 800291a:	46c0      	nop			@ (mov r8, r8)
 800291c:	40022000 	.word	0x40022000
 8002920:	40021000 	.word	0x40021000
 8002924:	08003454 	.word	0x08003454
 8002928:	20000004 	.word	0x20000004
 800292c:	00001388 	.word	0x00001388
 8002930:	fffff8ff 	.word	0xfffff8ff

08002934 <HAL_RCCEx_PeriphCLKConfig>:
 8002934:	b5f0      	push	{r4, r5, r6, r7, lr}
 8002936:	6803      	ldr	r3, [r0, #0]
 8002938:	0005      	movs	r5, r0
 800293a:	b085      	sub	sp, #20
 800293c:	03db      	lsls	r3, r3, #15
 800293e:	d52b      	bpl.n	8002998 <HAL_RCCEx_PeriphCLKConfig+0x64>
 8002940:	2280      	movs	r2, #128	@ 0x80
 8002942:	2100      	movs	r1, #0
 8002944:	4c38      	ldr	r4, [pc, #224]	@ (8002a28 <HAL_RCCEx_PeriphCLKConfig+0xf4>)
 8002946:	0552      	lsls	r2, r2, #21
 8002948:	69e3      	ldr	r3, [r4, #28]
 800294a:	9100      	str	r1, [sp, #0]
 800294c:	4213      	tst	r3, r2
 800294e:	d108      	bne.n	8002962 <HAL_RCCEx_PeriphCLKConfig+0x2e>
 8002950:	69e3      	ldr	r3, [r4, #28]
 8002952:	4313      	orrs	r3, r2
 8002954:	61e3      	str	r3, [r4, #28]
 8002956:	69e3      	ldr	r3, [r4, #28]
 8002958:	4013      	ands	r3, r2
 800295a:	9303      	str	r3, [sp, #12]
 800295c:	9b03      	ldr	r3, [sp, #12]
 800295e:	2301      	movs	r3, #1
 8002960:	9300      	str	r3, [sp, #0]
 8002962:	2780      	movs	r7, #128	@ 0x80
 8002964:	4e31      	ldr	r6, [pc, #196]	@ (8002a2c <HAL_RCCEx_PeriphCLKConfig+0xf8>)
 8002966:	007f      	lsls	r7, r7, #1
 8002968:	6833      	ldr	r3, [r6, #0]
 800296a:	423b      	tst	r3, r7
 800296c:	d022      	beq.n	80029b4 <HAL_RCCEx_PeriphCLKConfig+0x80>
 800296e:	6a21      	ldr	r1, [r4, #32]
 8002970:	22c0      	movs	r2, #192	@ 0xc0
 8002972:	0008      	movs	r0, r1
 8002974:	0092      	lsls	r2, r2, #2
 8002976:	686b      	ldr	r3, [r5, #4]
 8002978:	4e2d      	ldr	r6, [pc, #180]	@ (8002a30 <HAL_RCCEx_PeriphCLKConfig+0xfc>)
 800297a:	4010      	ands	r0, r2
 800297c:	4211      	tst	r1, r2
 800297e:	d12b      	bne.n	80029d8 <HAL_RCCEx_PeriphCLKConfig+0xa4>
 8002980:	6a23      	ldr	r3, [r4, #32]
 8002982:	686a      	ldr	r2, [r5, #4]
 8002984:	4033      	ands	r3, r6
 8002986:	4313      	orrs	r3, r2
 8002988:	6223      	str	r3, [r4, #32]
 800298a:	9b00      	ldr	r3, [sp, #0]
 800298c:	2b01      	cmp	r3, #1
 800298e:	d103      	bne.n	8002998 <HAL_RCCEx_PeriphCLKConfig+0x64>
 8002990:	69e3      	ldr	r3, [r4, #28]
 8002992:	4a28      	ldr	r2, [pc, #160]	@ (8002a34 <HAL_RCCEx_PeriphCLKConfig+0x100>)
 8002994:	4013      	ands	r3, r2
 8002996:	61e3      	str	r3, [r4, #28]
 8002998:	682a      	ldr	r2, [r5, #0]
 800299a:	07d3      	lsls	r3, r2, #31
 800299c:	d506      	bpl.n	80029ac <HAL_RCCEx_PeriphCLKConfig+0x78>
 800299e:	2003      	movs	r0, #3
 80029a0:	4921      	ldr	r1, [pc, #132]	@ (8002a28 <HAL_RCCEx_PeriphCLKConfig+0xf4>)
 80029a2:	6b0b      	ldr	r3, [r1, #48]	@ 0x30
 80029a4:	4383      	bics	r3, r0
 80029a6:	68a8      	ldr	r0, [r5, #8]
 80029a8:	4303      	orrs	r3, r0
 80029aa:	630b      	str	r3, [r1, #48]	@ 0x30
 80029ac:	0692      	lsls	r2, r2, #26
 80029ae:	d433      	bmi.n	8002a18 <HAL_RCCEx_PeriphCLKConfig+0xe4>
 80029b0:	2000      	movs	r0, #0
 80029b2:	e00f      	b.n	80029d4 <HAL_RCCEx_PeriphCLKConfig+0xa0>
 80029b4:	6833      	ldr	r3, [r6, #0]
 80029b6:	433b      	orrs	r3, r7
 80029b8:	6033      	str	r3, [r6, #0]
 80029ba:	f7fe ffef 	bl	800199c <HAL_GetTick>
 80029be:	9001      	str	r0, [sp, #4]
 80029c0:	6833      	ldr	r3, [r6, #0]
 80029c2:	423b      	tst	r3, r7
 80029c4:	d1d3      	bne.n	800296e <HAL_RCCEx_PeriphCLKConfig+0x3a>
 80029c6:	f7fe ffe9 	bl	800199c <HAL_GetTick>
 80029ca:	9b01      	ldr	r3, [sp, #4]
 80029cc:	1ac0      	subs	r0, r0, r3
 80029ce:	2864      	cmp	r0, #100	@ 0x64
 80029d0:	d9f6      	bls.n	80029c0 <HAL_RCCEx_PeriphCLKConfig+0x8c>
 80029d2:	2003      	movs	r0, #3
 80029d4:	b005      	add	sp, #20
 80029d6:	bdf0      	pop	{r4, r5, r6, r7, pc}
 80029d8:	4013      	ands	r3, r2
 80029da:	4283      	cmp	r3, r0
 80029dc:	d0d0      	beq.n	8002980 <HAL_RCCEx_PeriphCLKConfig+0x4c>
 80029de:	2280      	movs	r2, #128	@ 0x80
 80029e0:	6a23      	ldr	r3, [r4, #32]
 80029e2:	6a20      	ldr	r0, [r4, #32]
 80029e4:	0019      	movs	r1, r3
 80029e6:	0252      	lsls	r2, r2, #9
 80029e8:	4302      	orrs	r2, r0
 80029ea:	6222      	str	r2, [r4, #32]
 80029ec:	6a22      	ldr	r2, [r4, #32]
 80029ee:	4812      	ldr	r0, [pc, #72]	@ (8002a38 <HAL_RCCEx_PeriphCLKConfig+0x104>)
 80029f0:	4031      	ands	r1, r6
 80029f2:	4002      	ands	r2, r0
 80029f4:	6222      	str	r2, [r4, #32]
 80029f6:	6221      	str	r1, [r4, #32]
 80029f8:	07db      	lsls	r3, r3, #31
 80029fa:	d5c1      	bpl.n	8002980 <HAL_RCCEx_PeriphCLKConfig+0x4c>
 80029fc:	f7fe ffce 	bl	800199c <HAL_GetTick>
 8002a00:	0007      	movs	r7, r0
 8002a02:	2202      	movs	r2, #2
 8002a04:	6a23      	ldr	r3, [r4, #32]
 8002a06:	4213      	tst	r3, r2
 8002a08:	d1ba      	bne.n	8002980 <HAL_RCCEx_PeriphCLKConfig+0x4c>
 8002a0a:	f7fe ffc7 	bl	800199c <HAL_GetTick>
 8002a0e:	4b0b      	ldr	r3, [pc, #44]	@ (8002a3c <HAL_RCCEx_PeriphCLKConfig+0x108>)
 8002a10:	1bc0      	subs	r0, r0, r7
 8002a12:	4298      	cmp	r0, r3
 8002a14:	d9f5      	bls.n	8002a02 <HAL_RCCEx_PeriphCLKConfig+0xce>
 8002a16:	e7dc      	b.n	80029d2 <HAL_RCCEx_PeriphCLKConfig+0x9e>
 8002a18:	2110      	movs	r1, #16
 8002a1a:	4a03      	ldr	r2, [pc, #12]	@ (8002a28 <HAL_RCCEx_PeriphCLKConfig+0xf4>)
 8002a1c:	6b13      	ldr	r3, [r2, #48]	@ 0x30
 8002a1e:	438b      	bics	r3, r1
 8002a20:	68e9      	ldr	r1, [r5, #12]
 8002a22:	430b      	orrs	r3, r1
 8002a24:	6313      	str	r3, [r2, #48]	@ 0x30
 8002a26:	e7c3      	b.n	80029b0 <HAL_RCCEx_PeriphCLKConfig+0x7c>
 8002a28:	40021000 	.word	0x40021000
 8002a2c:	40007000 	.word	0x40007000
 8002a30:	fffffcff 	.word	0xfffffcff
 8002a34:	efffffff 	.word	0xefffffff
 8002a38:	fffeffff 	.word	0xfffeffff
 8002a3c:	00001388 	.word	0x00001388

08002a40 <TIM_OC1_SetConfig>:
 8002a40:	b570      	push	{r4, r5, r6, lr}
 8002a42:	2401      	movs	r4, #1
 8002a44:	6a03      	ldr	r3, [r0, #32]
 8002a46:	6a02      	ldr	r2, [r0, #32]
 8002a48:	43a2      	bics	r2, r4
 8002a4a:	6202      	str	r2, [r0, #32]
 8002a4c:	2273      	movs	r2, #115	@ 0x73
 8002a4e:	6844      	ldr	r4, [r0, #4]
 8002a50:	6985      	ldr	r5, [r0, #24]
 8002a52:	4395      	bics	r5, r2
 8002a54:	680a      	ldr	r2, [r1, #0]
 8002a56:	4315      	orrs	r5, r2
 8002a58:	2202      	movs	r2, #2
 8002a5a:	4393      	bics	r3, r2
 8002a5c:	688a      	ldr	r2, [r1, #8]
 8002a5e:	4313      	orrs	r3, r2
 8002a60:	4a0d      	ldr	r2, [pc, #52]	@ (8002a98 <TIM_OC1_SetConfig+0x58>)
 8002a62:	4290      	cmp	r0, r2
 8002a64:	d005      	beq.n	8002a72 <TIM_OC1_SetConfig+0x32>
 8002a66:	4a0d      	ldr	r2, [pc, #52]	@ (8002a9c <TIM_OC1_SetConfig+0x5c>)
 8002a68:	4290      	cmp	r0, r2
 8002a6a:	d002      	beq.n	8002a72 <TIM_OC1_SetConfig+0x32>
 8002a6c:	4a0c      	ldr	r2, [pc, #48]	@ (8002aa0 <TIM_OC1_SetConfig+0x60>)
 8002a6e:	4290      	cmp	r0, r2
 8002a70:	d10b      	bne.n	8002a8a <TIM_OC1_SetConfig+0x4a>
 8002a72:	2208      	movs	r2, #8
 8002a74:	4393      	bics	r3, r2
 8002a76:	68ca      	ldr	r2, [r1, #12]
 8002a78:	698e      	ldr	r6, [r1, #24]
 8002a7a:	4313      	orrs	r3, r2
 8002a7c:	2204      	movs	r2, #4
 8002a7e:	4393      	bics	r3, r2
 8002a80:	4a08      	ldr	r2, [pc, #32]	@ (8002aa4 <TIM_OC1_SetConfig+0x64>)
 8002a82:	4022      	ands	r2, r4
 8002a84:	694c      	ldr	r4, [r1, #20]
 8002a86:	4334      	orrs	r4, r6
 8002a88:	4314      	orrs	r4, r2
 8002a8a:	684a      	ldr	r2, [r1, #4]
 8002a8c:	6044      	str	r4, [r0, #4]
 8002a8e:	6185      	str	r5, [r0, #24]
 8002a90:	6342      	str	r2, [r0, #52]	@ 0x34
 8002a92:	6203      	str	r3, [r0, #32]
 8002a94:	bd70      	pop	{r4, r5, r6, pc}
 8002a96:	46c0      	nop			@ (mov r8, r8)
 8002a98:	40012c00 	.word	0x40012c00
 8002a9c:	40014400 	.word	0x40014400
 8002aa0:	40014800 	.word	0x40014800
 8002aa4:	fffffcff 	.word	0xfffffcff

08002aa8 <TIM_OC3_SetConfig>:
 8002aa8:	b570      	push	{r4, r5, r6, lr}
 8002aaa:	4a17      	ldr	r2, [pc, #92]	@ (8002b08 <TIM_OC3_SetConfig+0x60>)
 8002aac:	6a05      	ldr	r5, [r0, #32]
 8002aae:	6a03      	ldr	r3, [r0, #32]
 8002ab0:	4013      	ands	r3, r2
 8002ab2:	6203      	str	r3, [r0, #32]
 8002ab4:	2373      	movs	r3, #115	@ 0x73
 8002ab6:	6842      	ldr	r2, [r0, #4]
 8002ab8:	69c4      	ldr	r4, [r0, #28]
 8002aba:	439c      	bics	r4, r3
 8002abc:	680b      	ldr	r3, [r1, #0]
 8002abe:	431c      	orrs	r4, r3
 8002ac0:	4b12      	ldr	r3, [pc, #72]	@ (8002b0c <TIM_OC3_SetConfig+0x64>)
 8002ac2:	401d      	ands	r5, r3
 8002ac4:	688b      	ldr	r3, [r1, #8]
 8002ac6:	021b      	lsls	r3, r3, #8
 8002ac8:	432b      	orrs	r3, r5
 8002aca:	4d11      	ldr	r5, [pc, #68]	@ (8002b10 <TIM_OC3_SetConfig+0x68>)
 8002acc:	42a8      	cmp	r0, r5
 8002ace:	d10e      	bne.n	8002aee <TIM_OC3_SetConfig+0x46>
 8002ad0:	4d10      	ldr	r5, [pc, #64]	@ (8002b14 <TIM_OC3_SetConfig+0x6c>)
 8002ad2:	401d      	ands	r5, r3
 8002ad4:	68cb      	ldr	r3, [r1, #12]
 8002ad6:	021b      	lsls	r3, r3, #8
 8002ad8:	432b      	orrs	r3, r5
 8002ada:	4d0f      	ldr	r5, [pc, #60]	@ (8002b18 <TIM_OC3_SetConfig+0x70>)
 8002adc:	402b      	ands	r3, r5
 8002ade:	4d0f      	ldr	r5, [pc, #60]	@ (8002b1c <TIM_OC3_SetConfig+0x74>)
 8002ae0:	698e      	ldr	r6, [r1, #24]
 8002ae2:	4015      	ands	r5, r2
 8002ae4:	694a      	ldr	r2, [r1, #20]
 8002ae6:	4332      	orrs	r2, r6
 8002ae8:	0112      	lsls	r2, r2, #4
 8002aea:	432a      	orrs	r2, r5
 8002aec:	e005      	b.n	8002afa <TIM_OC3_SetConfig+0x52>
 8002aee:	4d0c      	ldr	r5, [pc, #48]	@ (8002b20 <TIM_OC3_SetConfig+0x78>)
 8002af0:	42a8      	cmp	r0, r5
 8002af2:	d0f4      	beq.n	8002ade <TIM_OC3_SetConfig+0x36>
 8002af4:	4d0b      	ldr	r5, [pc, #44]	@ (8002b24 <TIM_OC3_SetConfig+0x7c>)
 8002af6:	42a8      	cmp	r0, r5
 8002af8:	d0f1      	beq.n	8002ade <TIM_OC3_SetConfig+0x36>
 8002afa:	6042      	str	r2, [r0, #4]
 8002afc:	684a      	ldr	r2, [r1, #4]
 8002afe:	61c4      	str	r4, [r0, #28]
 8002b00:	63c2      	str	r2, [r0, #60]	@ 0x3c
 8002b02:	6203      	str	r3, [r0, #32]
 8002b04:	bd70      	pop	{r4, r5, r6, pc}
 8002b06:	46c0      	nop			@ (mov r8, r8)
 8002b08:	fffffeff 	.word	0xfffffeff
 8002b0c:	fffffdff 	.word	0xfffffdff
 8002b10:	40012c00 	.word	0x40012c00
 8002b14:	fffff7ff 	.word	0xfffff7ff
 8002b18:	fffffbff 	.word	0xfffffbff
 8002b1c:	ffffcfff 	.word	0xffffcfff
 8002b20:	40014400 	.word	0x40014400
 8002b24:	40014800 	.word	0x40014800

08002b28 <TIM_OC4_SetConfig>:
 8002b28:	b530      	push	{r4, r5, lr}
 8002b2a:	4a12      	ldr	r2, [pc, #72]	@ (8002b74 <TIM_OC4_SetConfig+0x4c>)
 8002b2c:	6a04      	ldr	r4, [r0, #32]
 8002b2e:	6a03      	ldr	r3, [r0, #32]
 8002b30:	4d11      	ldr	r5, [pc, #68]	@ (8002b78 <TIM_OC4_SetConfig+0x50>)
 8002b32:	4013      	ands	r3, r2
 8002b34:	6203      	str	r3, [r0, #32]
 8002b36:	6843      	ldr	r3, [r0, #4]
 8002b38:	69c2      	ldr	r2, [r0, #28]
 8002b3a:	402a      	ands	r2, r5
 8002b3c:	680d      	ldr	r5, [r1, #0]
 8002b3e:	022d      	lsls	r5, r5, #8
 8002b40:	4315      	orrs	r5, r2
 8002b42:	4a0e      	ldr	r2, [pc, #56]	@ (8002b7c <TIM_OC4_SetConfig+0x54>)
 8002b44:	4014      	ands	r4, r2
 8002b46:	688a      	ldr	r2, [r1, #8]
 8002b48:	0312      	lsls	r2, r2, #12
 8002b4a:	4322      	orrs	r2, r4
 8002b4c:	4c0c      	ldr	r4, [pc, #48]	@ (8002b80 <TIM_OC4_SetConfig+0x58>)
 8002b4e:	42a0      	cmp	r0, r4
 8002b50:	d005      	beq.n	8002b5e <TIM_OC4_SetConfig+0x36>
 8002b52:	4c0c      	ldr	r4, [pc, #48]	@ (8002b84 <TIM_OC4_SetConfig+0x5c>)
 8002b54:	42a0      	cmp	r0, r4
 8002b56:	d002      	beq.n	8002b5e <TIM_OC4_SetConfig+0x36>
 8002b58:	4c0b      	ldr	r4, [pc, #44]	@ (8002b88 <TIM_OC4_SetConfig+0x60>)
 8002b5a:	42a0      	cmp	r0, r4
 8002b5c:	d104      	bne.n	8002b68 <TIM_OC4_SetConfig+0x40>
 8002b5e:	4c0b      	ldr	r4, [pc, #44]	@ (8002b8c <TIM_OC4_SetConfig+0x64>)
 8002b60:	401c      	ands	r4, r3
 8002b62:	694b      	ldr	r3, [r1, #20]
 8002b64:	019b      	lsls	r3, r3, #6
 8002b66:	4323      	orrs	r3, r4
 8002b68:	6043      	str	r3, [r0, #4]
 8002b6a:	684b      	ldr	r3, [r1, #4]
 8002b6c:	61c5      	str	r5, [r0, #28]
 8002b6e:	6403      	str	r3, [r0, #64]	@ 0x40
 8002b70:	6202      	str	r2, [r0, #32]
 8002b72:	bd30      	pop	{r4, r5, pc}
 8002b74:	ffffefff 	.word	0xffffefff
 8002b78:	ffff8cff 	.word	0xffff8cff
 8002b7c:	ffffdfff 	.word	0xffffdfff
 8002b80:	40012c00 	.word	0x40012c00
 8002b84:	40014400 	.word	0x40014400
 8002b88:	40014800 	.word	0x40014800
 8002b8c:	ffffbfff 	.word	0xffffbfff

08002b90 <HAL_TIM_PWM_MspInit>:
 8002b90:	4770      	bx	lr
	...

08002b94 <HAL_TIM_DMABurst_MultiWriteStart>:
 8002b94:	b5f8      	push	{r3, r4, r5, r6, r7, lr}
 8002b96:	0015      	movs	r5, r2
 8002b98:	0002      	movs	r2, r0
 8002b9a:	3246      	adds	r2, #70	@ 0x46
 8002b9c:	7816      	ldrb	r6, [r2, #0]
 8002b9e:	0004      	movs	r4, r0
 8002ba0:	000f      	movs	r7, r1
 8002ba2:	b2f0      	uxtb	r0, r6
 8002ba4:	0019      	movs	r1, r3
 8002ba6:	9b07      	ldr	r3, [sp, #28]
 8002ba8:	2e02      	cmp	r6, #2
 8002baa:	d03f      	beq.n	8002c2c <HAL_TIM_DMABurst_MultiWriteStart+0x98>
 8002bac:	7810      	ldrb	r0, [r2, #0]
 8002bae:	2801      	cmp	r0, #1
 8002bb0:	d106      	bne.n	8002bc0 <HAL_TIM_DMABurst_MultiWriteStart+0x2c>
 8002bb2:	2900      	cmp	r1, #0
 8002bb4:	d102      	bne.n	8002bbc <HAL_TIM_DMABurst_MultiWriteStart+0x28>
 8002bb6:	9806      	ldr	r0, [sp, #24]
 8002bb8:	2800      	cmp	r0, #0
 8002bba:	d112      	bne.n	8002be2 <HAL_TIM_DMABurst_MultiWriteStart+0x4e>
 8002bbc:	2002      	movs	r0, #2
 8002bbe:	7010      	strb	r0, [r2, #0]
 8002bc0:	2280      	movs	r2, #128	@ 0x80
 8002bc2:	0112      	lsls	r2, r2, #4
 8002bc4:	4295      	cmp	r5, r2
 8002bc6:	d039      	beq.n	8002c3c <HAL_TIM_DMABurst_MultiWriteStart+0xa8>
 8002bc8:	d80d      	bhi.n	8002be6 <HAL_TIM_DMABurst_MultiWriteStart+0x52>
 8002bca:	2280      	movs	r2, #128	@ 0x80
 8002bcc:	0092      	lsls	r2, r2, #2
 8002bce:	4295      	cmp	r5, r2
 8002bd0:	d02d      	beq.n	8002c2e <HAL_TIM_DMABurst_MultiWriteStart+0x9a>
 8002bd2:	2280      	movs	r2, #128	@ 0x80
 8002bd4:	00d2      	lsls	r2, r2, #3
 8002bd6:	4295      	cmp	r5, r2
 8002bd8:	d02e      	beq.n	8002c38 <HAL_TIM_DMABurst_MultiWriteStart+0xa4>
 8002bda:	2280      	movs	r2, #128	@ 0x80
 8002bdc:	0052      	lsls	r2, r2, #1
 8002bde:	4295      	cmp	r5, r2
 8002be0:	d00f      	beq.n	8002c02 <HAL_TIM_DMABurst_MultiWriteStart+0x6e>
 8002be2:	2001      	movs	r0, #1
 8002be4:	e022      	b.n	8002c2c <HAL_TIM_DMABurst_MultiWriteStart+0x98>
 8002be6:	2280      	movs	r2, #128	@ 0x80
 8002be8:	0192      	lsls	r2, r2, #6
 8002bea:	4295      	cmp	r5, r2
 8002bec:	d028      	beq.n	8002c40 <HAL_TIM_DMABurst_MultiWriteStart+0xac>
 8002bee:	2280      	movs	r2, #128	@ 0x80
 8002bf0:	01d2      	lsls	r2, r2, #7
 8002bf2:	4295      	cmp	r5, r2
 8002bf4:	d029      	beq.n	8002c4a <HAL_TIM_DMABurst_MultiWriteStart+0xb6>
 8002bf6:	2280      	movs	r2, #128	@ 0x80
 8002bf8:	0152      	lsls	r2, r2, #5
 8002bfa:	4295      	cmp	r5, r2
 8002bfc:	d1f1      	bne.n	8002be2 <HAL_TIM_DMABurst_MultiWriteStart+0x4e>
 8002bfe:	6b20      	ldr	r0, [r4, #48]	@ 0x30
 8002c00:	e016      	b.n	8002c30 <HAL_TIM_DMABurst_MultiWriteStart+0x9c>
 8002c02:	4a14      	ldr	r2, [pc, #80]	@ (8002c54 <HAL_TIM_DMABurst_MultiWriteStart+0xc0>)
 8002c04:	6a20      	ldr	r0, [r4, #32]
 8002c06:	6282      	str	r2, [r0, #40]	@ 0x28
 8002c08:	4a13      	ldr	r2, [pc, #76]	@ (8002c58 <HAL_TIM_DMABurst_MultiWriteStart+0xc4>)
 8002c0a:	62c2      	str	r2, [r0, #44]	@ 0x2c
 8002c0c:	4a13      	ldr	r2, [pc, #76]	@ (8002c5c <HAL_TIM_DMABurst_MultiWriteStart+0xc8>)
 8002c0e:	6302      	str	r2, [r0, #48]	@ 0x30
 8002c10:	6822      	ldr	r2, [r4, #0]
 8002c12:	324c      	adds	r2, #76	@ 0x4c
 8002c14:	f7fe ff4a 	bl	8001aac <HAL_DMA_Start_IT>
 8002c18:	2800      	cmp	r0, #0
 8002c1a:	d1e2      	bne.n	8002be2 <HAL_TIM_DMABurst_MultiWriteStart+0x4e>
 8002c1c:	2000      	movs	r0, #0
 8002c1e:	9e06      	ldr	r6, [sp, #24]
 8002c20:	6823      	ldr	r3, [r4, #0]
 8002c22:	433e      	orrs	r6, r7
 8002c24:	649e      	str	r6, [r3, #72]	@ 0x48
 8002c26:	68da      	ldr	r2, [r3, #12]
 8002c28:	432a      	orrs	r2, r5
 8002c2a:	60da      	str	r2, [r3, #12]
 8002c2c:	bdf8      	pop	{r3, r4, r5, r6, r7, pc}
 8002c2e:	6a60      	ldr	r0, [r4, #36]	@ 0x24
 8002c30:	4a0b      	ldr	r2, [pc, #44]	@ (8002c60 <HAL_TIM_DMABurst_MultiWriteStart+0xcc>)
 8002c32:	6282      	str	r2, [r0, #40]	@ 0x28
 8002c34:	4a0b      	ldr	r2, [pc, #44]	@ (8002c64 <HAL_TIM_DMABurst_MultiWriteStart+0xd0>)
 8002c36:	e7e8      	b.n	8002c0a <HAL_TIM_DMABurst_MultiWriteStart+0x76>
 8002c38:	6aa0      	ldr	r0, [r4, #40]	@ 0x28
 8002c3a:	e7f9      	b.n	8002c30 <HAL_TIM_DMABurst_MultiWriteStart+0x9c>
 8002c3c:	6ae0      	ldr	r0, [r4, #44]	@ 0x2c
 8002c3e:	e7f7      	b.n	8002c30 <HAL_TIM_DMABurst_MultiWriteStart+0x9c>
 8002c40:	4a09      	ldr	r2, [pc, #36]	@ (8002c68 <HAL_TIM_DMABurst_MultiWriteStart+0xd4>)
 8002c42:	6b60      	ldr	r0, [r4, #52]	@ 0x34
 8002c44:	6282      	str	r2, [r0, #40]	@ 0x28
 8002c46:	4a09      	ldr	r2, [pc, #36]	@ (8002c6c <HAL_TIM_DMABurst_MultiWriteStart+0xd8>)
 8002c48:	e7df      	b.n	8002c0a <HAL_TIM_DMABurst_MultiWriteStart+0x76>
 8002c4a:	4a09      	ldr	r2, [pc, #36]	@ (8002c70 <HAL_TIM_DMABurst_MultiWriteStart+0xdc>)
 8002c4c:	6ba0      	ldr	r0, [r4, #56]	@ 0x38
 8002c4e:	6282      	str	r2, [r0, #40]	@ 0x28
 8002c50:	4a08      	ldr	r2, [pc, #32]	@ (8002c74 <HAL_TIM_DMABurst_MultiWriteStart+0xe0>)
 8002c52:	e7da      	b.n	8002c0a <HAL_TIM_DMABurst_MultiWriteStart+0x76>
 8002c54:	08002c7b 	.word	0x08002c7b
 8002c58:	08002c97 	.word	0x08002c97
 8002c5c:	08002d77 	.word	0x08002d77
 8002c60:	08002ca3 	.word	0x08002ca3
 8002c64:	08002d15 	.word	0x08002d15
 8002c68:	0800316b 	.word	0x0800316b
 8002c6c:	0800317f 	.word	0x0800317f
 8002c70:	08002d4f 	.word	0x08002d4f
 8002c74:	08002d6b 	.word	0x08002d6b

08002c78 <HAL_TIM_PeriodElapsedCallback>:
 8002c78:	4770      	bx	lr

08002c7a <TIM_DMAPeriodElapsedCplt>:
 8002c7a:	6a40      	ldr	r0, [r0, #36]	@ 0x24
 8002c7c:	b510      	push	{r4, lr}
 8002c7e:	6a03      	ldr	r3, [r0, #32]
 8002c80:	699b      	ldr	r3, [r3, #24]
 8002c82:	2b00      	cmp	r3, #0
 8002c84:	d103      	bne.n	8002c8e <TIM_DMAPeriodElapsedCplt+0x14>
 8002c86:	0003      	movs	r3, r0
 8002c88:	2201      	movs	r2, #1
 8002c8a:	333d      	adds	r3, #61	@ 0x3d
 8002c8c:	701a      	strb	r2, [r3, #0]
 8002c8e:	f7ff fff3 	bl	8002c78 <HAL_TIM_PeriodElapsedCallback>
 8002c92:	bd10      	pop	{r4, pc}

08002c94 <HAL_TIM_PeriodElapsedHalfCpltCallback>:
 8002c94:	4770      	bx	lr

08002c96 <TIM_DMAPeriodElapsedHalfCplt>:
 8002c96:	b510      	push	{r4, lr}
 8002c98:	6a40      	ldr	r0, [r0, #36]	@ 0x24
 8002c9a:	f7ff fffb 	bl	8002c94 <HAL_TIM_PeriodElapsedHalfCpltCallback>
 8002c9e:	bd10      	pop	{r4, pc}

08002ca0 <HAL_TIM_PWM_PulseFinishedCallback>:
 8002ca0:	4770      	bx	lr

08002ca2 <TIM_DMADelayPulseCplt>:
 8002ca2:	b510      	push	{r4, lr}
 8002ca4:	6a44      	ldr	r4, [r0, #36]	@ 0x24
 8002ca6:	6a62      	ldr	r2, [r4, #36]	@ 0x24
 8002ca8:	4282      	cmp	r2, r0
 8002caa:	d10d      	bne.n	8002cc8 <TIM_DMADelayPulseCplt+0x26>
 8002cac:	2301      	movs	r3, #1
 8002cae:	7723      	strb	r3, [r4, #28]
 8002cb0:	6992      	ldr	r2, [r2, #24]
 8002cb2:	2a00      	cmp	r2, #0
 8002cb4:	d102      	bne.n	8002cbc <TIM_DMADelayPulseCplt+0x1a>
 8002cb6:	0022      	movs	r2, r4
 8002cb8:	323e      	adds	r2, #62	@ 0x3e
 8002cba:	7013      	strb	r3, [r2, #0]
 8002cbc:	0020      	movs	r0, r4
 8002cbe:	f7ff ffef 	bl	8002ca0 <HAL_TIM_PWM_PulseFinishedCallback>
 8002cc2:	2300      	movs	r3, #0
 8002cc4:	7723      	strb	r3, [r4, #28]
 8002cc6:	bd10      	pop	{r4, pc}
 8002cc8:	6aa3      	ldr	r3, [r4, #40]	@ 0x28
 8002cca:	4283      	cmp	r3, r0
 8002ccc:	d109      	bne.n	8002ce2 <TIM_DMADelayPulseCplt+0x40>
 8002cce:	2202      	movs	r2, #2
 8002cd0:	7722      	strb	r2, [r4, #28]
 8002cd2:	699b      	ldr	r3, [r3, #24]
 8002cd4:	2b00      	cmp	r3, #0
 8002cd6:	d1f1      	bne.n	8002cbc <TIM_DMADelayPulseCplt+0x1a>
 8002cd8:	0023      	movs	r3, r4
 8002cda:	3a01      	subs	r2, #1
 8002cdc:	333f      	adds	r3, #63	@ 0x3f
 8002cde:	701a      	strb	r2, [r3, #0]
 8002ce0:	e7ec      	b.n	8002cbc <TIM_DMADelayPulseCplt+0x1a>
 8002ce2:	6ae3      	ldr	r3, [r4, #44]	@ 0x2c
 8002ce4:	4283      	cmp	r3, r0
 8002ce6:	d108      	bne.n	8002cfa <TIM_DMADelayPulseCplt+0x58>
 8002ce8:	2204      	movs	r2, #4
 8002cea:	7722      	strb	r2, [r4, #28]
 8002cec:	699b      	ldr	r3, [r3, #24]
 8002cee:	2b00      	cmp	r3, #0
 8002cf0:	d1e4      	bne.n	8002cbc <TIM_DMADelayPulseCplt+0x1a>
 8002cf2:	0023      	movs	r3, r4
 8002cf4:	3a03      	subs	r2, #3
 8002cf6:	3340      	adds	r3, #64	@ 0x40
 8002cf8:	e7f1      	b.n	8002cde <TIM_DMADelayPulseCplt+0x3c>
 8002cfa:	6b23      	ldr	r3, [r4, #48]	@ 0x30
 8002cfc:	4283      	cmp	r3, r0
 8002cfe:	d1dd      	bne.n	8002cbc <TIM_DMADelayPulseCplt+0x1a>
 8002d00:	2208      	movs	r2, #8
 8002d02:	7722      	strb	r2, [r4, #28]
 8002d04:	699b      	ldr	r3, [r3, #24]
 8002d06:	2b00      	cmp	r3, #0
 8002d08:	d1d8      	bne.n	8002cbc <TIM_DMADelayPulseCplt+0x1a>
 8002d0a:	0023      	movs	r3, r4
 8002d0c:	3a07      	subs	r2, #7
 8002d0e:	3341      	adds	r3, #65	@ 0x41
 8002d10:	e7e5      	b.n	8002cde <TIM_DMADelayPulseCplt+0x3c>

08002d12 <HAL_TIM_PWM_PulseFinishedHalfCpltCallback>:
 8002d12:	4770      	bx	lr

08002d14 <TIM_DMADelayPulseHalfCplt>:
 8002d14:	b510      	push	{r4, lr}
 8002d16:	6a44      	ldr	r4, [r0, #36]	@ 0x24
 8002d18:	6a63      	ldr	r3, [r4, #36]	@ 0x24
 8002d1a:	4283      	cmp	r3, r0
 8002d1c:	d107      	bne.n	8002d2e <TIM_DMADelayPulseHalfCplt+0x1a>
 8002d1e:	2301      	movs	r3, #1
 8002d20:	7723      	strb	r3, [r4, #28]
 8002d22:	0020      	movs	r0, r4
 8002d24:	f7ff fff5 	bl	8002d12 <HAL_TIM_PWM_PulseFinishedHalfCpltCallback>
 8002d28:	2300      	movs	r3, #0
 8002d2a:	7723      	strb	r3, [r4, #28]
 8002d2c:	bd10      	pop	{r4, pc}
 8002d2e:	6aa3      	ldr	r3, [r4, #40]	@ 0x28
 8002d30:	4283      	cmp	r3, r0
 8002d32:	d101      	bne.n	8002d38 <TIM_DMADelayPulseHalfCplt+0x24>
 8002d34:	2302      	movs	r3, #2
 8002d36:	e7f3      	b.n	8002d20 <TIM_DMADelayPulseHalfCplt+0xc>
 8002d38:	6ae3      	ldr	r3, [r4, #44]	@ 0x2c
 8002d3a:	4283      	cmp	r3, r0
 8002d3c:	d101      	bne.n	8002d42 <TIM_DMADelayPulseHalfCplt+0x2e>
 8002d3e:	2304      	movs	r3, #4
 8002d40:	e7ee      	b.n	8002d20 <TIM_DMADelayPulseHalfCplt+0xc>
 8002d42:	6b23      	ldr	r3, [r4, #48]	@ 0x30
 8002d44:	4283      	cmp	r3, r0
 8002d46:	d1ec      	bne.n	8002d22 <TIM_DMADelayPulseHalfCplt+0xe>
 8002d48:	2308      	movs	r3, #8
 8002d4a:	e7e9      	b.n	8002d20 <TIM_DMADelayPulseHalfCplt+0xc>

08002d4c <HAL_TIM_TriggerCallback>:
 8002d4c:	4770      	bx	lr

08002d4e <TIM_DMATriggerCplt>:
 8002d4e:	6a40      	ldr	r0, [r0, #36]	@ 0x24
 8002d50:	b510      	push	{r4, lr}
 8002d52:	6b83      	ldr	r3, [r0, #56]	@ 0x38
 8002d54:	699b      	ldr	r3, [r3, #24]
 8002d56:	2b00      	cmp	r3, #0
 8002d58:	d103      	bne.n	8002d62 <TIM_DMATriggerCplt+0x14>
 8002d5a:	0003      	movs	r3, r0
 8002d5c:	2201      	movs	r2, #1
 8002d5e:	333d      	adds	r3, #61	@ 0x3d
 8002d60:	701a      	strb	r2, [r3, #0]
 8002d62:	f7ff fff3 	bl	8002d4c <HAL_TIM_TriggerCallback>
 8002d66:	bd10      	pop	{r4, pc}

08002d68 <HAL_TIM_TriggerHalfCpltCallback>:
 8002d68:	4770      	bx	lr

08002d6a <TIM_DMATriggerHalfCplt>:
 8002d6a:	b510      	push	{r4, lr}
 8002d6c:	6a40      	ldr	r0, [r0, #36]	@ 0x24
 8002d6e:	f7ff fffb 	bl	8002d68 <HAL_TIM_TriggerHalfCpltCallback>
 8002d72:	bd10      	pop	{r4, pc}

08002d74 <HAL_TIM_ErrorCallback>:
 8002d74:	4770      	bx	lr

08002d76 <TIM_DMAError>:
 8002d76:	b510      	push	{r4, lr}
 8002d78:	6a44      	ldr	r4, [r0, #36]	@ 0x24
 8002d7a:	6a63      	ldr	r3, [r4, #36]	@ 0x24
 8002d7c:	4283      	cmp	r3, r0
 8002d7e:	d105      	bne.n	8002d8c <TIM_DMAError+0x16>
 8002d80:	2301      	movs	r3, #1
 8002d82:	0022      	movs	r2, r4
 8002d84:	7723      	strb	r3, [r4, #28]
 8002d86:	323e      	adds	r2, #62	@ 0x3e
 8002d88:	7013      	strb	r3, [r2, #0]
 8002d8a:	e008      	b.n	8002d9e <TIM_DMAError+0x28>
 8002d8c:	6aa3      	ldr	r3, [r4, #40]	@ 0x28
 8002d8e:	4283      	cmp	r3, r0
 8002d90:	d10b      	bne.n	8002daa <TIM_DMAError+0x34>
 8002d92:	2302      	movs	r3, #2
 8002d94:	7723      	strb	r3, [r4, #28]
 8002d96:	0023      	movs	r3, r4
 8002d98:	2201      	movs	r2, #1
 8002d9a:	333f      	adds	r3, #63	@ 0x3f
 8002d9c:	701a      	strb	r2, [r3, #0]
 8002d9e:	0020      	movs	r0, r4
 8002da0:	f7ff ffe8 	bl	8002d74 <HAL_TIM_ErrorCallback>
 8002da4:	2300      	movs	r3, #0
 8002da6:	7723      	strb	r3, [r4, #28]
 8002da8:	bd10      	pop	{r4, pc}
 8002daa:	6ae2      	ldr	r2, [r4, #44]	@ 0x2c
 8002dac:	2301      	movs	r3, #1
 8002dae:	4282      	cmp	r2, r0
 8002db0:	d104      	bne.n	8002dbc <TIM_DMAError+0x46>
 8002db2:	2204      	movs	r2, #4
 8002db4:	7722      	strb	r2, [r4, #28]
 8002db6:	0022      	movs	r2, r4
 8002db8:	3240      	adds	r2, #64	@ 0x40
 8002dba:	e7e5      	b.n	8002d88 <TIM_DMAError+0x12>
 8002dbc:	6b22      	ldr	r2, [r4, #48]	@ 0x30
 8002dbe:	4282      	cmp	r2, r0
 8002dc0:	d104      	bne.n	8002dcc <TIM_DMAError+0x56>
 8002dc2:	2208      	movs	r2, #8
 8002dc4:	7722      	strb	r2, [r4, #28]
 8002dc6:	0022      	movs	r2, r4
 8002dc8:	3241      	adds	r2, #65	@ 0x41
 8002dca:	e7dd      	b.n	8002d88 <TIM_DMAError+0x12>
 8002dcc:	0022      	movs	r2, r4
 8002dce:	323d      	adds	r2, #61	@ 0x3d
 8002dd0:	e7da      	b.n	8002d88 <TIM_DMAError+0x12>
	...

08002dd4 <TIM_Base_SetConfig>:
 8002dd4:	b510      	push	{r4, lr}
 8002dd6:	4c1b      	ldr	r4, [pc, #108]	@ (8002e44 <TIM_Base_SetConfig+0x70>)
 8002dd8:	6803      	ldr	r3, [r0, #0]
 8002dda:	42a0      	cmp	r0, r4
 8002ddc:	d00a      	beq.n	8002df4 <TIM_Base_SetConfig+0x20>
 8002dde:	4a1a      	ldr	r2, [pc, #104]	@ (8002e48 <TIM_Base_SetConfig+0x74>)
 8002de0:	4290      	cmp	r0, r2
 8002de2:	d007      	beq.n	8002df4 <TIM_Base_SetConfig+0x20>
 8002de4:	4a19      	ldr	r2, [pc, #100]	@ (8002e4c <TIM_Base_SetConfig+0x78>)
 8002de6:	4290      	cmp	r0, r2
 8002de8:	d109      	bne.n	8002dfe <TIM_Base_SetConfig+0x2a>
 8002dea:	4a19      	ldr	r2, [pc, #100]	@ (8002e50 <TIM_Base_SetConfig+0x7c>)
 8002dec:	401a      	ands	r2, r3
 8002dee:	68cb      	ldr	r3, [r1, #12]
 8002df0:	4313      	orrs	r3, r2
 8002df2:	e00a      	b.n	8002e0a <TIM_Base_SetConfig+0x36>
 8002df4:	2270      	movs	r2, #112	@ 0x70
 8002df6:	4393      	bics	r3, r2
 8002df8:	684a      	ldr	r2, [r1, #4]
 8002dfa:	4313      	orrs	r3, r2
 8002dfc:	e7f5      	b.n	8002dea <TIM_Base_SetConfig+0x16>
 8002dfe:	4a15      	ldr	r2, [pc, #84]	@ (8002e54 <TIM_Base_SetConfig+0x80>)
 8002e00:	4290      	cmp	r0, r2
 8002e02:	d0f2      	beq.n	8002dea <TIM_Base_SetConfig+0x16>
 8002e04:	4a14      	ldr	r2, [pc, #80]	@ (8002e58 <TIM_Base_SetConfig+0x84>)
 8002e06:	4290      	cmp	r0, r2
 8002e08:	d0ef      	beq.n	8002dea <TIM_Base_SetConfig+0x16>
 8002e0a:	2280      	movs	r2, #128	@ 0x80
 8002e0c:	4393      	bics	r3, r2
 8002e0e:	694a      	ldr	r2, [r1, #20]
 8002e10:	4313      	orrs	r3, r2
 8002e12:	6003      	str	r3, [r0, #0]
 8002e14:	688b      	ldr	r3, [r1, #8]
 8002e16:	62c3      	str	r3, [r0, #44]	@ 0x2c
 8002e18:	680b      	ldr	r3, [r1, #0]
 8002e1a:	6283      	str	r3, [r0, #40]	@ 0x28
 8002e1c:	42a0      	cmp	r0, r4
 8002e1e:	d005      	beq.n	8002e2c <TIM_Base_SetConfig+0x58>
 8002e20:	4b0c      	ldr	r3, [pc, #48]	@ (8002e54 <TIM_Base_SetConfig+0x80>)
 8002e22:	4298      	cmp	r0, r3
 8002e24:	d002      	beq.n	8002e2c <TIM_Base_SetConfig+0x58>
 8002e26:	4b0c      	ldr	r3, [pc, #48]	@ (8002e58 <TIM_Base_SetConfig+0x84>)
 8002e28:	4298      	cmp	r0, r3
 8002e2a:	d101      	bne.n	8002e30 <TIM_Base_SetConfig+0x5c>
 8002e2c:	690b      	ldr	r3, [r1, #16]
 8002e2e:	6303      	str	r3, [r0, #48]	@ 0x30
 8002e30:	2201      	movs	r2, #1
 8002e32:	6142      	str	r2, [r0, #20]
 8002e34:	6903      	ldr	r3, [r0, #16]
 8002e36:	4213      	tst	r3, r2
 8002e38:	d002      	beq.n	8002e40 <TIM_Base_SetConfig+0x6c>
 8002e3a:	6903      	ldr	r3, [r0, #16]
 8002e3c:	4393      	bics	r3, r2
 8002e3e:	6103      	str	r3, [r0, #16]
 8002e40:	bd10      	pop	{r4, pc}
 8002e42:	46c0      	nop			@ (mov r8, r8)
 8002e44:	40012c00 	.word	0x40012c00
 8002e48:	40000400 	.word	0x40000400
 8002e4c:	40002000 	.word	0x40002000
 8002e50:	fffffcff 	.word	0xfffffcff
 8002e54:	40014400 	.word	0x40014400
 8002e58:	40014800 	.word	0x40014800

08002e5c <HAL_TIM_Base_Init>:
 8002e5c:	b570      	push	{r4, r5, r6, lr}
 8002e5e:	0004      	movs	r4, r0
 8002e60:	2001      	movs	r0, #1
 8002e62:	2c00      	cmp	r4, #0
 8002e64:	d021      	beq.n	8002eaa <HAL_TIM_Base_Init+0x4e>
 8002e66:	0025      	movs	r5, r4
 8002e68:	353d      	adds	r5, #61	@ 0x3d
 8002e6a:	782b      	ldrb	r3, [r5, #0]
 8002e6c:	b2da      	uxtb	r2, r3
 8002e6e:	2b00      	cmp	r3, #0
 8002e70:	d105      	bne.n	8002e7e <HAL_TIM_Base_Init+0x22>
 8002e72:	0023      	movs	r3, r4
 8002e74:	333c      	adds	r3, #60	@ 0x3c
 8002e76:	0020      	movs	r0, r4
 8002e78:	701a      	strb	r2, [r3, #0]
 8002e7a:	f7fe fc99 	bl	80017b0 <HAL_TIM_Base_MspInit>
 8002e7e:	2302      	movs	r3, #2
 8002e80:	702b      	strb	r3, [r5, #0]
 8002e82:	6820      	ldr	r0, [r4, #0]
 8002e84:	1d21      	adds	r1, r4, #4
 8002e86:	f7ff ffa5 	bl	8002dd4 <TIM_Base_SetConfig>
 8002e8a:	0022      	movs	r2, r4
 8002e8c:	2301      	movs	r3, #1
 8002e8e:	2000      	movs	r0, #0
 8002e90:	3246      	adds	r2, #70	@ 0x46
 8002e92:	7013      	strb	r3, [r2, #0]
 8002e94:	3445      	adds	r4, #69	@ 0x45
 8002e96:	3a08      	subs	r2, #8
 8002e98:	7013      	strb	r3, [r2, #0]
 8002e9a:	7053      	strb	r3, [r2, #1]
 8002e9c:	7093      	strb	r3, [r2, #2]
 8002e9e:	70d3      	strb	r3, [r2, #3]
 8002ea0:	7113      	strb	r3, [r2, #4]
 8002ea2:	7153      	strb	r3, [r2, #5]
 8002ea4:	7193      	strb	r3, [r2, #6]
 8002ea6:	7023      	strb	r3, [r4, #0]
 8002ea8:	702b      	strb	r3, [r5, #0]
 8002eaa:	bd70      	pop	{r4, r5, r6, pc}

08002eac <HAL_TIM_PWM_Init>:
 8002eac:	b570      	push	{r4, r5, r6, lr}
 8002eae:	0004      	movs	r4, r0
 8002eb0:	2001      	movs	r0, #1
 8002eb2:	2c00      	cmp	r4, #0
 8002eb4:	d021      	beq.n	8002efa <HAL_TIM_PWM_Init+0x4e>
 8002eb6:	0025      	movs	r5, r4
 8002eb8:	353d      	adds	r5, #61	@ 0x3d
 8002eba:	782b      	ldrb	r3, [r5, #0]
 8002ebc:	b2da      	uxtb	r2, r3
 8002ebe:	2b00      	cmp	r3, #0
 8002ec0:	d105      	bne.n	8002ece <HAL_TIM_PWM_Init+0x22>
 8002ec2:	0023      	movs	r3, r4
 8002ec4:	333c      	adds	r3, #60	@ 0x3c
 8002ec6:	0020      	movs	r0, r4
 8002ec8:	701a      	strb	r2, [r3, #0]
 8002eca:	f7ff fe61 	bl	8002b90 <HAL_TIM_PWM_MspInit>
 8002ece:	2302      	movs	r3, #2
 8002ed0:	702b      	strb	r3, [r5, #0]
 8002ed2:	6820      	ldr	r0, [r4, #0]
 8002ed4:	1d21      	adds	r1, r4, #4
 8002ed6:	f7ff ff7d 	bl	8002dd4 <TIM_Base_SetConfig>
 8002eda:	0022      	movs	r2, r4
 8002edc:	2301      	movs	r3, #1
 8002ede:	2000      	movs	r0, #0
 8002ee0:	3246      	adds	r2, #70	@ 0x46
 8002ee2:	7013      	strb	r3, [r2, #0]
 8002ee4:	3445      	adds	r4, #69	@ 0x45
 8002ee6:	3a08      	subs	r2, #8
 8002ee8:	7013      	strb	r3, [r2, #0]
 8002eea:	7053      	strb	r3, [r2, #1]
 8002eec:	7093      	strb	r3, [r2, #2]
 8002eee:	70d3      	strb	r3, [r2, #3]
 8002ef0:	7113      	strb	r3, [r2, #4]
 8002ef2:	7153      	strb	r3, [r2, #5]
 8002ef4:	7193      	strb	r3, [r2, #6]
 8002ef6:	7023      	strb	r3, [r4, #0]
 8002ef8:	702b      	strb	r3, [r5, #0]
 8002efa:	bd70      	pop	{r4, r5, r6, pc}

08002efc <TIM_OC2_SetConfig>:
 8002efc:	2210      	movs	r2, #16
 8002efe:	b570      	push	{r4, r5, r6, lr}
 8002f00:	6a05      	ldr	r5, [r0, #32]
 8002f02:	6a03      	ldr	r3, [r0, #32]
 8002f04:	4c16      	ldr	r4, [pc, #88]	@ (8002f60 <TIM_OC2_SetConfig+0x64>)
 8002f06:	4393      	bics	r3, r2
 8002f08:	6203      	str	r3, [r0, #32]
 8002f0a:	6842      	ldr	r2, [r0, #4]
 8002f0c:	6983      	ldr	r3, [r0, #24]
 8002f0e:	4023      	ands	r3, r4
 8002f10:	680c      	ldr	r4, [r1, #0]
 8002f12:	0224      	lsls	r4, r4, #8
 8002f14:	431c      	orrs	r4, r3
 8002f16:	2320      	movs	r3, #32
 8002f18:	439d      	bics	r5, r3
 8002f1a:	688b      	ldr	r3, [r1, #8]
 8002f1c:	011b      	lsls	r3, r3, #4
 8002f1e:	432b      	orrs	r3, r5
 8002f20:	4d10      	ldr	r5, [pc, #64]	@ (8002f64 <TIM_OC2_SetConfig+0x68>)
 8002f22:	42a8      	cmp	r0, r5
 8002f24:	d10f      	bne.n	8002f46 <TIM_OC2_SetConfig+0x4a>
 8002f26:	2580      	movs	r5, #128	@ 0x80
 8002f28:	43ab      	bics	r3, r5
 8002f2a:	001e      	movs	r6, r3
 8002f2c:	68cb      	ldr	r3, [r1, #12]
 8002f2e:	3d40      	subs	r5, #64	@ 0x40
 8002f30:	011b      	lsls	r3, r3, #4
 8002f32:	4333      	orrs	r3, r6
 8002f34:	43ab      	bics	r3, r5
 8002f36:	4d0c      	ldr	r5, [pc, #48]	@ (8002f68 <TIM_OC2_SetConfig+0x6c>)
 8002f38:	698e      	ldr	r6, [r1, #24]
 8002f3a:	4015      	ands	r5, r2
 8002f3c:	694a      	ldr	r2, [r1, #20]
 8002f3e:	4332      	orrs	r2, r6
 8002f40:	0092      	lsls	r2, r2, #2
 8002f42:	432a      	orrs	r2, r5
 8002f44:	e005      	b.n	8002f52 <TIM_OC2_SetConfig+0x56>
 8002f46:	4d09      	ldr	r5, [pc, #36]	@ (8002f6c <TIM_OC2_SetConfig+0x70>)
 8002f48:	42a8      	cmp	r0, r5
 8002f4a:	d0f4      	beq.n	8002f36 <TIM_OC2_SetConfig+0x3a>
 8002f4c:	4d08      	ldr	r5, [pc, #32]	@ (8002f70 <TIM_OC2_SetConfig+0x74>)
 8002f4e:	42a8      	cmp	r0, r5
 8002f50:	d0f1      	beq.n	8002f36 <TIM_OC2_SetConfig+0x3a>
 8002f52:	6042      	str	r2, [r0, #4]
 8002f54:	684a      	ldr	r2, [r1, #4]
 8002f56:	6184      	str	r4, [r0, #24]
 8002f58:	6382      	str	r2, [r0, #56]	@ 0x38
 8002f5a:	6203      	str	r3, [r0, #32]
 8002f5c:	bd70      	pop	{r4, r5, r6, pc}
 8002f5e:	46c0      	nop			@ (mov r8, r8)
 8002f60:	ffff8cff 	.word	0xffff8cff
 8002f64:	40012c00 	.word	0x40012c00
 8002f68:	fffff3ff 	.word	0xfffff3ff
 8002f6c:	40014400 	.word	0x40014400
 8002f70:	40014800 	.word	0x40014800

08002f74 <HAL_TIM_PWM_ConfigChannel>:
 8002f74:	b5f8      	push	{r3, r4, r5, r6, r7, lr}
 8002f76:	0006      	movs	r6, r0
 8002f78:	363c      	adds	r6, #60	@ 0x3c
 8002f7a:	0015      	movs	r5, r2
 8002f7c:	7832      	ldrb	r2, [r6, #0]
 8002f7e:	0003      	movs	r3, r0
 8002f80:	000c      	movs	r4, r1
 8002f82:	2002      	movs	r0, #2
 8002f84:	2a01      	cmp	r2, #1
 8002f86:	d00a      	beq.n	8002f9e <HAL_TIM_PWM_ConfigChannel+0x2a>
 8002f88:	3801      	subs	r0, #1
 8002f8a:	7030      	strb	r0, [r6, #0]
 8002f8c:	2d08      	cmp	r5, #8
 8002f8e:	d03f      	beq.n	8003010 <HAL_TIM_PWM_ConfigChannel+0x9c>
 8002f90:	d806      	bhi.n	8002fa0 <HAL_TIM_PWM_ConfigChannel+0x2c>
 8002f92:	2d00      	cmp	r5, #0
 8002f94:	d019      	beq.n	8002fca <HAL_TIM_PWM_ConfigChannel+0x56>
 8002f96:	2d04      	cmp	r5, #4
 8002f98:	d029      	beq.n	8002fee <HAL_TIM_PWM_ConfigChannel+0x7a>
 8002f9a:	2300      	movs	r3, #0
 8002f9c:	7033      	strb	r3, [r6, #0]
 8002f9e:	bdf8      	pop	{r3, r4, r5, r6, r7, pc}
 8002fa0:	2d0c      	cmp	r5, #12
 8002fa2:	d1fa      	bne.n	8002f9a <HAL_TIM_PWM_ConfigChannel+0x26>
 8002fa4:	681d      	ldr	r5, [r3, #0]
 8002fa6:	0028      	movs	r0, r5
 8002fa8:	f7ff fdbe 	bl	8002b28 <TIM_OC4_SetConfig>
 8002fac:	2380      	movs	r3, #128	@ 0x80
 8002fae:	69ea      	ldr	r2, [r5, #28]
 8002fb0:	011b      	lsls	r3, r3, #4
 8002fb2:	4313      	orrs	r3, r2
 8002fb4:	61eb      	str	r3, [r5, #28]
 8002fb6:	69eb      	ldr	r3, [r5, #28]
 8002fb8:	4a1d      	ldr	r2, [pc, #116]	@ (8003030 <HAL_TIM_PWM_ConfigChannel+0xbc>)
 8002fba:	4013      	ands	r3, r2
 8002fbc:	61eb      	str	r3, [r5, #28]
 8002fbe:	6923      	ldr	r3, [r4, #16]
 8002fc0:	69ea      	ldr	r2, [r5, #28]
 8002fc2:	021b      	lsls	r3, r3, #8
 8002fc4:	4313      	orrs	r3, r2
 8002fc6:	61eb      	str	r3, [r5, #28]
 8002fc8:	e00f      	b.n	8002fea <HAL_TIM_PWM_ConfigChannel+0x76>
 8002fca:	681d      	ldr	r5, [r3, #0]
 8002fcc:	0028      	movs	r0, r5
 8002fce:	f7ff fd37 	bl	8002a40 <TIM_OC1_SetConfig>
 8002fd2:	2308      	movs	r3, #8
 8002fd4:	69aa      	ldr	r2, [r5, #24]
 8002fd6:	4313      	orrs	r3, r2
 8002fd8:	2204      	movs	r2, #4
 8002fda:	61ab      	str	r3, [r5, #24]
 8002fdc:	69ab      	ldr	r3, [r5, #24]
 8002fde:	4393      	bics	r3, r2
 8002fe0:	61ab      	str	r3, [r5, #24]
 8002fe2:	69ab      	ldr	r3, [r5, #24]
 8002fe4:	6922      	ldr	r2, [r4, #16]
 8002fe6:	4313      	orrs	r3, r2
 8002fe8:	61ab      	str	r3, [r5, #24]
 8002fea:	2000      	movs	r0, #0
 8002fec:	e7d5      	b.n	8002f9a <HAL_TIM_PWM_ConfigChannel+0x26>
 8002fee:	681d      	ldr	r5, [r3, #0]
 8002ff0:	0028      	movs	r0, r5
 8002ff2:	f7ff ff83 	bl	8002efc <TIM_OC2_SetConfig>
 8002ff6:	2380      	movs	r3, #128	@ 0x80
 8002ff8:	69aa      	ldr	r2, [r5, #24]
 8002ffa:	011b      	lsls	r3, r3, #4
 8002ffc:	4313      	orrs	r3, r2
 8002ffe:	61ab      	str	r3, [r5, #24]
 8003000:	69ab      	ldr	r3, [r5, #24]
 8003002:	4a0b      	ldr	r2, [pc, #44]	@ (8003030 <HAL_TIM_PWM_ConfigChannel+0xbc>)
 8003004:	4013      	ands	r3, r2
 8003006:	61ab      	str	r3, [r5, #24]
 8003008:	6923      	ldr	r3, [r4, #16]
 800300a:	69aa      	ldr	r2, [r5, #24]
 800300c:	021b      	lsls	r3, r3, #8
 800300e:	e7ea      	b.n	8002fe6 <HAL_TIM_PWM_ConfigChannel+0x72>
 8003010:	681f      	ldr	r7, [r3, #0]
 8003012:	0038      	movs	r0, r7
 8003014:	f7ff fd48 	bl	8002aa8 <TIM_OC3_SetConfig>
 8003018:	2204      	movs	r2, #4
 800301a:	69fb      	ldr	r3, [r7, #28]
 800301c:	431d      	orrs	r5, r3
 800301e:	61fd      	str	r5, [r7, #28]
 8003020:	69fb      	ldr	r3, [r7, #28]
 8003022:	4393      	bics	r3, r2
 8003024:	61fb      	str	r3, [r7, #28]
 8003026:	69fb      	ldr	r3, [r7, #28]
 8003028:	6922      	ldr	r2, [r4, #16]
 800302a:	4313      	orrs	r3, r2
 800302c:	61fb      	str	r3, [r7, #28]
 800302e:	e7dc      	b.n	8002fea <HAL_TIM_PWM_ConfigChannel+0x76>
 8003030:	fffffbff 	.word	0xfffffbff

08003034 <TIM_CCxChannelCmd>:
 8003034:	231f      	movs	r3, #31
 8003036:	b510      	push	{r4, lr}
 8003038:	2401      	movs	r4, #1
 800303a:	4019      	ands	r1, r3
 800303c:	408c      	lsls	r4, r1
 800303e:	408a      	lsls	r2, r1
 8003040:	6a03      	ldr	r3, [r0, #32]
 8003042:	43a3      	bics	r3, r4
 8003044:	6203      	str	r3, [r0, #32]
 8003046:	6a03      	ldr	r3, [r0, #32]
 8003048:	431a      	orrs	r2, r3
 800304a:	6202      	str	r2, [r0, #32]
 800304c:	bd10      	pop	{r4, pc}
	...

08003050 <HAL_TIM_OC_Start>:
 8003050:	0002      	movs	r2, r0
 8003052:	0003      	movs	r3, r0
 8003054:	b510      	push	{r4, lr}
 8003056:	2900      	cmp	r1, #0
 8003058:	d109      	bne.n	800306e <HAL_TIM_OC_Start+0x1e>
 800305a:	333e      	adds	r3, #62	@ 0x3e
 800305c:	781b      	ldrb	r3, [r3, #0]
 800305e:	3b01      	subs	r3, #1
 8003060:	1e58      	subs	r0, r3, #1
 8003062:	4183      	sbcs	r3, r0
 8003064:	b2db      	uxtb	r3, r3
 8003066:	2001      	movs	r0, #1
 8003068:	2b00      	cmp	r3, #0
 800306a:	d00a      	beq.n	8003082 <HAL_TIM_OC_Start+0x32>
 800306c:	bd10      	pop	{r4, pc}
 800306e:	2904      	cmp	r1, #4
 8003070:	d101      	bne.n	8003076 <HAL_TIM_OC_Start+0x26>
 8003072:	333f      	adds	r3, #63	@ 0x3f
 8003074:	e7f2      	b.n	800305c <HAL_TIM_OC_Start+0xc>
 8003076:	2908      	cmp	r1, #8
 8003078:	d101      	bne.n	800307e <HAL_TIM_OC_Start+0x2e>
 800307a:	3340      	adds	r3, #64	@ 0x40
 800307c:	e7ee      	b.n	800305c <HAL_TIM_OC_Start+0xc>
 800307e:	3341      	adds	r3, #65	@ 0x41
 8003080:	e7ec      	b.n	800305c <HAL_TIM_OC_Start+0xc>
 8003082:	2302      	movs	r3, #2
 8003084:	0010      	movs	r0, r2
 8003086:	2900      	cmp	r1, #0
 8003088:	d11d      	bne.n	80030c6 <HAL_TIM_OC_Start+0x76>
 800308a:	303e      	adds	r0, #62	@ 0x3e
 800308c:	7003      	strb	r3, [r0, #0]
 800308e:	6814      	ldr	r4, [r2, #0]
 8003090:	2201      	movs	r2, #1
 8003092:	0020      	movs	r0, r4
 8003094:	f7ff ffce 	bl	8003034 <TIM_CCxChannelCmd>
 8003098:	4a14      	ldr	r2, [pc, #80]	@ (80030ec <HAL_TIM_OC_Start+0x9c>)
 800309a:	4294      	cmp	r4, r2
 800309c:	d005      	beq.n	80030aa <HAL_TIM_OC_Start+0x5a>
 800309e:	4b14      	ldr	r3, [pc, #80]	@ (80030f0 <HAL_TIM_OC_Start+0xa0>)
 80030a0:	429c      	cmp	r4, r3
 80030a2:	d002      	beq.n	80030aa <HAL_TIM_OC_Start+0x5a>
 80030a4:	4b13      	ldr	r3, [pc, #76]	@ (80030f4 <HAL_TIM_OC_Start+0xa4>)
 80030a6:	429c      	cmp	r4, r3
 80030a8:	d117      	bne.n	80030da <HAL_TIM_OC_Start+0x8a>
 80030aa:	2380      	movs	r3, #128	@ 0x80
 80030ac:	6c61      	ldr	r1, [r4, #68]	@ 0x44
 80030ae:	021b      	lsls	r3, r3, #8
 80030b0:	430b      	orrs	r3, r1
 80030b2:	6463      	str	r3, [r4, #68]	@ 0x44
 80030b4:	4294      	cmp	r4, r2
 80030b6:	d113      	bne.n	80030e0 <HAL_TIM_OC_Start+0x90>
 80030b8:	2207      	movs	r2, #7
 80030ba:	68a3      	ldr	r3, [r4, #8]
 80030bc:	4013      	ands	r3, r2
 80030be:	2b06      	cmp	r3, #6
 80030c0:	d10e      	bne.n	80030e0 <HAL_TIM_OC_Start+0x90>
 80030c2:	2000      	movs	r0, #0
 80030c4:	e7d2      	b.n	800306c <HAL_TIM_OC_Start+0x1c>
 80030c6:	2904      	cmp	r1, #4
 80030c8:	d101      	bne.n	80030ce <HAL_TIM_OC_Start+0x7e>
 80030ca:	303f      	adds	r0, #63	@ 0x3f
 80030cc:	e7de      	b.n	800308c <HAL_TIM_OC_Start+0x3c>
 80030ce:	2908      	cmp	r1, #8
 80030d0:	d101      	bne.n	80030d6 <HAL_TIM_OC_Start+0x86>
 80030d2:	3040      	adds	r0, #64	@ 0x40
 80030d4:	e7da      	b.n	800308c <HAL_TIM_OC_Start+0x3c>
 80030d6:	3041      	adds	r0, #65	@ 0x41
 80030d8:	e7d8      	b.n	800308c <HAL_TIM_OC_Start+0x3c>
 80030da:	4b07      	ldr	r3, [pc, #28]	@ (80030f8 <HAL_TIM_OC_Start+0xa8>)
 80030dc:	429c      	cmp	r4, r3
 80030de:	d0eb      	beq.n	80030b8 <HAL_TIM_OC_Start+0x68>
 80030e0:	2301      	movs	r3, #1
 80030e2:	6822      	ldr	r2, [r4, #0]
 80030e4:	4313      	orrs	r3, r2
 80030e6:	6023      	str	r3, [r4, #0]
 80030e8:	e7eb      	b.n	80030c2 <HAL_TIM_OC_Start+0x72>
 80030ea:	46c0      	nop			@ (mov r8, r8)
 80030ec:	40012c00 	.word	0x40012c00
 80030f0:	40014400 	.word	0x40014400
 80030f4:	40014800 	.word	0x40014800
 80030f8:	40000400 	.word	0x40000400

080030fc <HAL_TIM_PWM_Start>:
 80030fc:	b510      	push	{r4, lr}
 80030fe:	f7ff ffa7 	bl	8003050 <HAL_TIM_OC_Start>
 8003102:	bd10      	pop	{r4, pc}

08003104 <HAL_TIMEx_ConfigBreakDeadTime>:
 8003104:	b510      	push	{r4, lr}
 8003106:	0004      	movs	r4, r0
 8003108:	343c      	adds	r4, #60	@ 0x3c
 800310a:	7823      	ldrb	r3, [r4, #0]
 800310c:	0002      	movs	r2, r0
 800310e:	2002      	movs	r0, #2
 8003110:	2b01      	cmp	r3, #1
 8003112:	d01c      	beq.n	800314e <HAL_TIMEx_ConfigBreakDeadTime+0x4a>
 8003114:	68cb      	ldr	r3, [r1, #12]
 8003116:	480e      	ldr	r0, [pc, #56]	@ (8003150 <HAL_TIMEx_ConfigBreakDeadTime+0x4c>)
 8003118:	6812      	ldr	r2, [r2, #0]
 800311a:	4003      	ands	r3, r0
 800311c:	6888      	ldr	r0, [r1, #8]
 800311e:	4303      	orrs	r3, r0
 8003120:	480c      	ldr	r0, [pc, #48]	@ (8003154 <HAL_TIMEx_ConfigBreakDeadTime+0x50>)
 8003122:	4003      	ands	r3, r0
 8003124:	6848      	ldr	r0, [r1, #4]
 8003126:	4303      	orrs	r3, r0
 8003128:	480b      	ldr	r0, [pc, #44]	@ (8003158 <HAL_TIMEx_ConfigBreakDeadTime+0x54>)
 800312a:	4003      	ands	r3, r0
 800312c:	6808      	ldr	r0, [r1, #0]
 800312e:	4303      	orrs	r3, r0
 8003130:	480a      	ldr	r0, [pc, #40]	@ (800315c <HAL_TIMEx_ConfigBreakDeadTime+0x58>)
 8003132:	4003      	ands	r3, r0
 8003134:	6908      	ldr	r0, [r1, #16]
 8003136:	4303      	orrs	r3, r0
 8003138:	4809      	ldr	r0, [pc, #36]	@ (8003160 <HAL_TIMEx_ConfigBreakDeadTime+0x5c>)
 800313a:	4003      	ands	r3, r0
 800313c:	6948      	ldr	r0, [r1, #20]
 800313e:	69c9      	ldr	r1, [r1, #28]
 8003140:	4303      	orrs	r3, r0
 8003142:	4808      	ldr	r0, [pc, #32]	@ (8003164 <HAL_TIMEx_ConfigBreakDeadTime+0x60>)
 8003144:	4003      	ands	r3, r0
 8003146:	2000      	movs	r0, #0
 8003148:	430b      	orrs	r3, r1
 800314a:	6453      	str	r3, [r2, #68]	@ 0x44
 800314c:	7020      	strb	r0, [r4, #0]
 800314e:	bd10      	pop	{r4, pc}
 8003150:	fffffcff 	.word	0xfffffcff
 8003154:	fffffbff 	.word	0xfffffbff
 8003158:	fffff7ff 	.word	0xfffff7ff
 800315c:	ffffefff 	.word	0xffffefff
 8003160:	ffffdfff 	.word	0xffffdfff
 8003164:	ffffbfff 	.word	0xffffbfff

08003168 <HAL_TIMEx_CommutCallback>:
 8003168:	4770      	bx	lr

0800316a <TIMEx_DMACommutationCplt>:
 800316a:	6a40      	ldr	r0, [r0, #36]	@ 0x24
 800316c:	2201      	movs	r2, #1
 800316e:	0003      	movs	r3, r0
 8003170:	b510      	push	{r4, lr}
 8003172:	333d      	adds	r3, #61	@ 0x3d
 8003174:	701a      	strb	r2, [r3, #0]
 8003176:	f7ff fff7 	bl	8003168 <HAL_TIMEx_CommutCallback>
 800317a:	bd10      	pop	{r4, pc}

0800317c <HAL_TIMEx_CommutHalfCpltCallback>:
 800317c:	4770      	bx	lr

0800317e <TIMEx_DMACommutationHalfCplt>:
 800317e:	6a40      	ldr	r0, [r0, #36]	@ 0x24
 8003180:	2201      	movs	r2, #1
 8003182:	0003      	movs	r3, r0
 8003184:	b510      	push	{r4, lr}
 8003186:	333d      	adds	r3, #61	@ 0x3d
 8003188:	701a      	strb	r2, [r3, #0]
 800318a:	f7ff fff7 	bl	800317c <HAL_TIMEx_CommutHalfCpltCallback>
 800318e:	bd10      	pop	{r4, pc}

08003190 <malloc>:
 8003190:	b510      	push	{r4, lr}
 8003192:	4b03      	ldr	r3, [pc, #12]	@ (80031a0 <malloc+0x10>)
 8003194:	0001      	movs	r1, r0
 8003196:	6818      	ldr	r0, [r3, #0]
 8003198:	f000 f830 	bl	80031fc <_malloc_r>
 800319c:	bd10      	pop	{r4, pc}
 800319e:	46c0      	nop			@ (mov r8, r8)
 80031a0:	20000010 	.word	0x20000010

080031a4 <free>:
 80031a4:	b510      	push	{r4, lr}
 80031a6:	4b03      	ldr	r3, [pc, #12]	@ (80031b4 <free+0x10>)
 80031a8:	0001      	movs	r1, r0
 80031aa:	6818      	ldr	r0, [r3, #0]
 80031ac:	f000 f8fc 	bl	80033a8 <_free_r>
 80031b0:	bd10      	pop	{r4, pc}
 80031b2:	46c0      	nop			@ (mov r8, r8)
 80031b4:	20000010 	.word	0x20000010

080031b8 <sbrk_aligned>:
 80031b8:	b570      	push	{r4, r5, r6, lr}
 80031ba:	4e0f      	ldr	r6, [pc, #60]	@ (80031f8 <sbrk_aligned+0x40>)
 80031bc:	000d      	movs	r5, r1
 80031be:	6831      	ldr	r1, [r6, #0]
 80031c0:	0004      	movs	r4, r0
 80031c2:	2900      	cmp	r1, #0
 80031c4:	d102      	bne.n	80031cc <sbrk_aligned+0x14>
 80031c6:	f000 f8b1 	bl	800332c <_sbrk_r>
 80031ca:	6030      	str	r0, [r6, #0]
 80031cc:	0029      	movs	r1, r5
 80031ce:	0020      	movs	r0, r4
 80031d0:	f000 f8ac 	bl	800332c <_sbrk_r>
 80031d4:	1c43      	adds	r3, r0, #1
 80031d6:	d103      	bne.n	80031e0 <sbrk_aligned+0x28>
 80031d8:	2501      	movs	r5, #1
 80031da:	426d      	negs	r5, r5
 80031dc:	0028      	movs	r0, r5
 80031de:	bd70      	pop	{r4, r5, r6, pc}
 80031e0:	2303      	movs	r3, #3
 80031e2:	1cc5      	adds	r5, r0, #3
 80031e4:	439d      	bics	r5, r3
 80031e6:	42a8      	cmp	r0, r5
 80031e8:	d0f8      	beq.n	80031dc <sbrk_aligned+0x24>
 80031ea:	1a29      	subs	r1, r5, r0
 80031ec:	0020      	movs	r0, r4
 80031ee:	f000 f89d 	bl	800332c <_sbrk_r>
 80031f2:	3001      	adds	r0, #1
 80031f4:	d1f2      	bne.n	80031dc <sbrk_aligned+0x24>
 80031f6:	e7ef      	b.n	80031d8 <sbrk_aligned+0x20>
 80031f8:	20000170 	.word	0x20000170

080031fc <_malloc_r>:
 80031fc:	b5f7      	push	{r0, r1, r2, r4, r5, r6, r7, lr}
 80031fe:	2203      	movs	r2, #3
 8003200:	1ccb      	adds	r3, r1, #3
 8003202:	4393      	bics	r3, r2
 8003204:	3308      	adds	r3, #8
 8003206:	0005      	movs	r5, r0
 8003208:	001f      	movs	r7, r3
 800320a:	2b0c      	cmp	r3, #12
 800320c:	d234      	bcs.n	8003278 <_malloc_r+0x7c>
 800320e:	270c      	movs	r7, #12
 8003210:	42b9      	cmp	r1, r7
 8003212:	d833      	bhi.n	800327c <_malloc_r+0x80>
 8003214:	0028      	movs	r0, r5
 8003216:	f000 f871 	bl	80032fc <__malloc_lock>
 800321a:	4e37      	ldr	r6, [pc, #220]	@ (80032f8 <_malloc_r+0xfc>)
 800321c:	6833      	ldr	r3, [r6, #0]
 800321e:	001c      	movs	r4, r3
 8003220:	2c00      	cmp	r4, #0
 8003222:	d12f      	bne.n	8003284 <_malloc_r+0x88>
 8003224:	0039      	movs	r1, r7
 8003226:	0028      	movs	r0, r5
 8003228:	f7ff ffc6 	bl	80031b8 <sbrk_aligned>
 800322c:	0004      	movs	r4, r0
 800322e:	1c43      	adds	r3, r0, #1
 8003230:	d15f      	bne.n	80032f2 <_malloc_r+0xf6>
 8003232:	6834      	ldr	r4, [r6, #0]
 8003234:	9400      	str	r4, [sp, #0]
 8003236:	9b00      	ldr	r3, [sp, #0]
 8003238:	2b00      	cmp	r3, #0
 800323a:	d14a      	bne.n	80032d2 <_malloc_r+0xd6>
 800323c:	2c00      	cmp	r4, #0
 800323e:	d052      	beq.n	80032e6 <_malloc_r+0xea>
 8003240:	6823      	ldr	r3, [r4, #0]
 8003242:	0028      	movs	r0, r5
 8003244:	18e3      	adds	r3, r4, r3
 8003246:	9900      	ldr	r1, [sp, #0]
 8003248:	9301      	str	r3, [sp, #4]
 800324a:	f000 f86f 	bl	800332c <_sbrk_r>
 800324e:	9b01      	ldr	r3, [sp, #4]
 8003250:	4283      	cmp	r3, r0
 8003252:	d148      	bne.n	80032e6 <_malloc_r+0xea>
 8003254:	6823      	ldr	r3, [r4, #0]
 8003256:	0028      	movs	r0, r5
 8003258:	1aff      	subs	r7, r7, r3
 800325a:	0039      	movs	r1, r7
 800325c:	f7ff ffac 	bl	80031b8 <sbrk_aligned>
 8003260:	3001      	adds	r0, #1
 8003262:	d040      	beq.n	80032e6 <_malloc_r+0xea>
 8003264:	6823      	ldr	r3, [r4, #0]
 8003266:	19db      	adds	r3, r3, r7
 8003268:	6023      	str	r3, [r4, #0]
 800326a:	6833      	ldr	r3, [r6, #0]
 800326c:	685a      	ldr	r2, [r3, #4]
 800326e:	2a00      	cmp	r2, #0
 8003270:	d133      	bne.n	80032da <_malloc_r+0xde>
 8003272:	9b00      	ldr	r3, [sp, #0]
 8003274:	6033      	str	r3, [r6, #0]
 8003276:	e019      	b.n	80032ac <_malloc_r+0xb0>
 8003278:	2b00      	cmp	r3, #0
 800327a:	dac9      	bge.n	8003210 <_malloc_r+0x14>
 800327c:	230c      	movs	r3, #12
 800327e:	602b      	str	r3, [r5, #0]
 8003280:	2000      	movs	r0, #0
 8003282:	bdfe      	pop	{r1, r2, r3, r4, r5, r6, r7, pc}
 8003284:	6821      	ldr	r1, [r4, #0]
 8003286:	1bc9      	subs	r1, r1, r7
 8003288:	d420      	bmi.n	80032cc <_malloc_r+0xd0>
 800328a:	290b      	cmp	r1, #11
 800328c:	d90a      	bls.n	80032a4 <_malloc_r+0xa8>
 800328e:	19e2      	adds	r2, r4, r7
 8003290:	6027      	str	r7, [r4, #0]
 8003292:	42a3      	cmp	r3, r4
 8003294:	d104      	bne.n	80032a0 <_malloc_r+0xa4>
 8003296:	6032      	str	r2, [r6, #0]
 8003298:	6863      	ldr	r3, [r4, #4]
 800329a:	6011      	str	r1, [r2, #0]
 800329c:	6053      	str	r3, [r2, #4]
 800329e:	e005      	b.n	80032ac <_malloc_r+0xb0>
 80032a0:	605a      	str	r2, [r3, #4]
 80032a2:	e7f9      	b.n	8003298 <_malloc_r+0x9c>
 80032a4:	6862      	ldr	r2, [r4, #4]
 80032a6:	42a3      	cmp	r3, r4
 80032a8:	d10e      	bne.n	80032c8 <_malloc_r+0xcc>
 80032aa:	6032      	str	r2, [r6, #0]
 80032ac:	0028      	movs	r0, r5
 80032ae:	f000 f82d 	bl	800330c <__malloc_unlock>
 80032b2:	0020      	movs	r0, r4
 80032b4:	2207      	movs	r2, #7
 80032b6:	300b      	adds	r0, #11
 80032b8:	1d23      	adds	r3, r4, #4
 80032ba:	4390      	bics	r0, r2
 80032bc:	1ac2      	subs	r2, r0, r3
 80032be:	4298      	cmp	r0, r3
 80032c0:	d0df      	beq.n	8003282 <_malloc_r+0x86>
 80032c2:	1a1b      	subs	r3, r3, r0
 80032c4:	50a3      	str	r3, [r4, r2]
 80032c6:	e7dc      	b.n	8003282 <_malloc_r+0x86>
 80032c8:	605a      	str	r2, [r3, #4]
 80032ca:	e7ef      	b.n	80032ac <_malloc_r+0xb0>
 80032cc:	0023      	movs	r3, r4
 80032ce:	6864      	ldr	r4, [r4, #4]
 80032d0:	e7a6      	b.n	8003220 <_malloc_r+0x24>
 80032d2:	9c00      	ldr	r4, [sp, #0]
 80032d4:	6863      	ldr	r3, [r4, #4]
 80032d6:	9300      	str	r3, [sp, #0]
 80032d8:	e7ad      	b.n	8003236 <_malloc_r+0x3a>
 80032da:	001a      	movs	r2, r3
 80032dc:	685b      	ldr	r3, [r3, #4]
 80032de:	42a3      	cmp	r3, r4
 80032e0:	d1fb      	bne.n	80032da <_malloc_r+0xde>
 80032e2:	2300      	movs	r3, #0
 80032e4:	e7da      	b.n	800329c <_malloc_r+0xa0>
 80032e6:	230c      	movs	r3, #12
 80032e8:	0028      	movs	r0, r5
 80032ea:	602b      	str	r3, [r5, #0]
 80032ec:	f000 f80e 	bl	800330c <__malloc_unlock>
 80032f0:	e7c6      	b.n	8003280 <_malloc_r+0x84>
 80032f2:	6007      	str	r7, [r0, #0]
 80032f4:	e7da      	b.n	80032ac <_malloc_r+0xb0>
 80032f6:	46c0      	nop			@ (mov r8, r8)
 80032f8:	20000174 	.word	0x20000174

080032fc <__malloc_lock>:
 80032fc:	b510      	push	{r4, lr}
 80032fe:	4802      	ldr	r0, [pc, #8]	@ (8003308 <__malloc_lock+0xc>)
 8003300:	f000 f850 	bl	80033a4 <__retarget_lock_acquire_recursive>
 8003304:	bd10      	pop	{r4, pc}
 8003306:	46c0      	nop			@ (mov r8, r8)
 8003308:	200002b4 	.word	0x200002b4

0800330c <__malloc_unlock>:
 800330c:	b510      	push	{r4, lr}
 800330e:	4802      	ldr	r0, [pc, #8]	@ (8003318 <__malloc_unlock+0xc>)
 8003310:	f000 f849 	bl	80033a6 <__retarget_lock_release_recursive>
 8003314:	bd10      	pop	{r4, pc}
 8003316:	46c0      	nop			@ (mov r8, r8)
 8003318:	200002b4 	.word	0x200002b4

0800331c <memset>:
 800331c:	0003      	movs	r3, r0
 800331e:	1882      	adds	r2, r0, r2
 8003320:	4293      	cmp	r3, r2
 8003322:	d100      	bne.n	8003326 <memset+0xa>
 8003324:	4770      	bx	lr
 8003326:	7019      	strb	r1, [r3, #0]
 8003328:	3301      	adds	r3, #1
 800332a:	e7f9      	b.n	8003320 <memset+0x4>

0800332c <_sbrk_r>:
 800332c:	2300      	movs	r3, #0
 800332e:	b570      	push	{r4, r5, r6, lr}
 8003330:	4d06      	ldr	r5, [pc, #24]	@ (800334c <_sbrk_r+0x20>)
 8003332:	0004      	movs	r4, r0
 8003334:	0008      	movs	r0, r1
 8003336:	602b      	str	r3, [r5, #0]
 8003338:	f7fe faa4 	bl	8001884 <_sbrk>
 800333c:	1c43      	adds	r3, r0, #1
 800333e:	d103      	bne.n	8003348 <_sbrk_r+0x1c>
 8003340:	682b      	ldr	r3, [r5, #0]
 8003342:	2b00      	cmp	r3, #0
 8003344:	d000      	beq.n	8003348 <_sbrk_r+0x1c>
 8003346:	6023      	str	r3, [r4, #0]
 8003348:	bd70      	pop	{r4, r5, r6, pc}
 800334a:	46c0      	nop			@ (mov r8, r8)
 800334c:	200002b0 	.word	0x200002b0

08003350 <__errno>:
 8003350:	4b01      	ldr	r3, [pc, #4]	@ (8003358 <__errno+0x8>)
 8003352:	6818      	ldr	r0, [r3, #0]
 8003354:	4770      	bx	lr
 8003356:	46c0      	nop			@ (mov r8, r8)
 8003358:	20000010 	.word	0x20000010

0800335c <__libc_init_array>:
 800335c:	b570      	push	{r4, r5, r6, lr}
 800335e:	2600      	movs	r6, #0
 8003360:	4c0c      	ldr	r4, [pc, #48]	@ (8003394 <__libc_init_array+0x38>)
 8003362:	4d0d      	ldr	r5, [pc, #52]	@ (8003398 <__libc_init_array+0x3c>)
 8003364:	1b64      	subs	r4, r4, r5
 8003366:	10a4      	asrs	r4, r4, #2
 8003368:	42a6      	cmp	r6, r4
 800336a:	d109      	bne.n	8003380 <__libc_init_array+0x24>
 800336c:	2600      	movs	r6, #0
 800336e:	f000 f865 	bl	800343c <_init>
 8003372:	4c0a      	ldr	r4, [pc, #40]	@ (800339c <__libc_init_array+0x40>)
 8003374:	4d0a      	ldr	r5, [pc, #40]	@ (80033a0 <__libc_init_array+0x44>)
 8003376:	1b64      	subs	r4, r4, r5
 8003378:	10a4      	asrs	r4, r4, #2
 800337a:	42a6      	cmp	r6, r4
 800337c:	d105      	bne.n	800338a <__libc_init_array+0x2e>
 800337e:	bd70      	pop	{r4, r5, r6, pc}
 8003380:	00b3      	lsls	r3, r6, #2
 8003382:	58eb      	ldr	r3, [r5, r3]
 8003384:	4798      	blx	r3
 8003386:	3601      	adds	r6, #1
 8003388:	e7ee      	b.n	8003368 <__libc_init_array+0xc>
 800338a:	00b3      	lsls	r3, r6, #2
 800338c:	58eb      	ldr	r3, [r5, r3]
 800338e:	4798      	blx	r3
 8003390:	3601      	adds	r6, #1
 8003392:	e7f2      	b.n	800337a <__libc_init_array+0x1e>
 8003394:	08003484 	.word	0x08003484
 8003398:	08003484 	.word	0x08003484
 800339c:	08003488 	.word	0x08003488
 80033a0:	08003484 	.word	0x08003484

080033a4 <__retarget_lock_acquire_recursive>:
 80033a4:	4770      	bx	lr

080033a6 <__retarget_lock_release_recursive>:
 80033a6:	4770      	bx	lr

080033a8 <_free_r>:
 80033a8:	b570      	push	{r4, r5, r6, lr}
 80033aa:	0005      	movs	r5, r0
 80033ac:	1e0c      	subs	r4, r1, #0
 80033ae:	d010      	beq.n	80033d2 <_free_r+0x2a>
 80033b0:	3c04      	subs	r4, #4
 80033b2:	6823      	ldr	r3, [r4, #0]
 80033b4:	2b00      	cmp	r3, #0
 80033b6:	da00      	bge.n	80033ba <_free_r+0x12>
 80033b8:	18e4      	adds	r4, r4, r3
 80033ba:	0028      	movs	r0, r5
 80033bc:	f7ff ff9e 	bl	80032fc <__malloc_lock>
 80033c0:	4a1d      	ldr	r2, [pc, #116]	@ (8003438 <_free_r+0x90>)
 80033c2:	6813      	ldr	r3, [r2, #0]
 80033c4:	2b00      	cmp	r3, #0
 80033c6:	d105      	bne.n	80033d4 <_free_r+0x2c>
 80033c8:	6063      	str	r3, [r4, #4]
 80033ca:	6014      	str	r4, [r2, #0]
 80033cc:	0028      	movs	r0, r5
 80033ce:	f7ff ff9d 	bl	800330c <__malloc_unlock>
 80033d2:	bd70      	pop	{r4, r5, r6, pc}
 80033d4:	42a3      	cmp	r3, r4
 80033d6:	d908      	bls.n	80033ea <_free_r+0x42>
 80033d8:	6820      	ldr	r0, [r4, #0]
 80033da:	1821      	adds	r1, r4, r0
 80033dc:	428b      	cmp	r3, r1
 80033de:	d1f3      	bne.n	80033c8 <_free_r+0x20>
 80033e0:	6819      	ldr	r1, [r3, #0]
 80033e2:	685b      	ldr	r3, [r3, #4]
 80033e4:	1809      	adds	r1, r1, r0
 80033e6:	6021      	str	r1, [r4, #0]
 80033e8:	e7ee      	b.n	80033c8 <_free_r+0x20>
 80033ea:	001a      	movs	r2, r3
 80033ec:	685b      	ldr	r3, [r3, #4]
 80033ee:	2b00      	cmp	r3, #0
 80033f0:	d001      	beq.n	80033f6 <_free_r+0x4e>
 80033f2:	42a3      	cmp	r3, r4
 80033f4:	d9f9      	bls.n	80033ea <_free_r+0x42>
 80033f6:	6811      	ldr	r1, [r2, #0]
 80033f8:	1850      	adds	r0, r2, r1
 80033fa:	42a0      	cmp	r0, r4
 80033fc:	d10b      	bne.n	8003416 <_free_r+0x6e>
 80033fe:	6820      	ldr	r0, [r4, #0]
 8003400:	1809      	adds	r1, r1, r0
 8003402:	1850      	adds	r0, r2, r1
 8003404:	6011      	str	r1, [r2, #0]
 8003406:	4283      	cmp	r3, r0
 8003408:	d1e0      	bne.n	80033cc <_free_r+0x24>
 800340a:	6818      	ldr	r0, [r3, #0]
 800340c:	685b      	ldr	r3, [r3, #4]
 800340e:	1841      	adds	r1, r0, r1
 8003410:	6011      	str	r1, [r2, #0]
 8003412:	6053      	str	r3, [r2, #4]
 8003414:	e7da      	b.n	80033cc <_free_r+0x24>
 8003416:	42a0      	cmp	r0, r4
 8003418:	d902      	bls.n	8003420 <_free_r+0x78>
 800341a:	230c      	movs	r3, #12
 800341c:	602b      	str	r3, [r5, #0]
 800341e:	e7d5      	b.n	80033cc <_free_r+0x24>
 8003420:	6820      	ldr	r0, [r4, #0]
 8003422:	1821      	adds	r1, r4, r0
 8003424:	428b      	cmp	r3, r1
 8003426:	d103      	bne.n	8003430 <_free_r+0x88>
 8003428:	6819      	ldr	r1, [r3, #0]
 800342a:	685b      	ldr	r3, [r3, #4]
 800342c:	1809      	adds	r1, r1, r0
 800342e:	6021      	str	r1, [r4, #0]
 8003430:	6063      	str	r3, [r4, #4]
 8003432:	6054      	str	r4, [r2, #4]
 8003434:	e7ca      	b.n	80033cc <_free_r+0x24>
 8003436:	46c0      	nop			@ (mov r8, r8)
 8003438:	20000174 	.word	0x20000174

0800343c <_init>:
 800343c:	b5f8      	push	{r3, r4, r5, r6, r7, lr}
 800343e:	46c0      	nop			@ (mov r8, r8)
 8003440:	bcf8      	pop	{r3, r4, r5, r6, r7}
 8003442:	bc08      	pop	{r3}
 8003444:	469e      	mov	lr, r3
 8003446:	4770      	bx	lr

08003448 <_fini>:
 8003448:	b5f8      	push	{r3, r4, r5, r6, r7, lr}
 800344a:	46c0      	nop			@ (mov r8, r8)
 800344c:	bcf8      	pop	{r3, r4, r5, r6, r7}
 800344e:	bc08      	pop	{r3}
 8003450:	469e      	mov	lr, r3
 8003452:	4770      	bx	lr
